 CourseworkBase

 Timestamp is 590de198 (Sat May 06 15:45:44 2017)

 Preferred load address is 00400000

 Start         Length     Name                   Class
 0001:00000000 0000249cH .text                   CODE
 0001:000024a0 000024d5H .text$di                CODE
 0001:00004980 00020e20H .text$mn                CODE
 0001:000257a0 0000235eH .text$x                 CODE
 0001:00027b00 00001500H .text$yd                CODE
 0002:00000000 00000104H .CRT$XCA                DATA
 0002:00000104 00000104H .CRT$XCAA               DATA
 0002:00000208 00000104H .CRT$XCL                DATA
 0002:0000030c 000002adH .CRT$XCU                DATA
 0002:000005bc 00000104H .CRT$XCZ                DATA
 0002:000006c0 00000104H .CRT$XIA                DATA
 0002:000007c4 00000104H .CRT$XIAA               DATA
 0002:000008c8 00000104H .CRT$XIC                DATA
 0002:000009cc 00000104H .CRT$XIY                DATA
 0002:00000ad0 00000104H .CRT$XIZ                DATA
 0002:00000be0 0000161aH .rdata                  DATA
 0002:000021fc 00000173H .rdata$debug            DATA
 0002:00002370 000011efH .rdata$r                DATA
 0002:00003560 00000241H .rdata$sxdata           DATA
 0002:000037a4 00000104H .rtc$IAA                DATA
 0002:000038a8 00000104H .rtc$IZZ                DATA
 0002:000039ac 00000104H .rtc$TAA                DATA
 0002:00003ab0 00000104H .rtc$TZZ                DATA
 0002:00003bb8 0000154cH .xdata$x                DATA
 0002:00005104 00000000H .edata                  DATA
 0003:00000000 00000170H .data                   DATA
 0003:00000170 00000886H .data$r                 DATA
 0003:000009f8 00000405H .bss                    DATA
 0004:00000000 0000047cH .idata$5                DATA
 0004:0000047c 00000078H .idata$2                DATA
 0004:000004f4 00000014H .idata$3                DATA
 0004:00000508 0000047cH .idata$4                DATA
 0004:00000984 00001961H .idata$6                DATA
 0005:00000000 00000169H .rsrc$01                DATA
 0005:00000170 000003e3H .rsrc$02                DATA

  Address         Publics by Value              Rva+Base       Lib:Object

 0000:00000000       ___guard_fids_table        00000000     <absolute>
 0000:00000000       __except_list              00000000     <absolute>
 0000:00000000       ___guard_fids_count        00000000     <absolute>
 0000:00000000       ___guard_flags             00000000     <absolute>
 0000:00000043       ___safe_se_handler_count   00000043     <absolute>
 0000:00009876       __fltused                  00009876     <absolute>
 0000:00009876       __ldused                   00009876     <absolute>
 0000:00000000       ___ImageBase               00400000     <linker-defined>
 0001:00001aa0       _main                      00402aa0 f   SDL2main:SDL_windows_main.obj
 0001:00001ad0       _WinMain@16                00402ad0 f   SDL2main:SDL_windows_main.obj
 0001:00004980       ??$_Allocate@D@std@@YAPADIPAD@Z 00405980 f i BadPigObject.obj
 0001:000049e0       ??$addressof@D@std@@YAPADAAD@Z 004059e0 f i BadPigObject.obj
 0001:00004a00       ??$construct@PADAAPAD@?$_Wrap_alloc@V?$allocator@D@std@@@std@@QAEXPAPADAAPAD@Z 00405a00 f i BadPigObject.obj
 0001:00004a40       ??$construct@PADAAPAD@?$allocator@D@std@@QAEXPAPADAAPAD@Z 00405a40 f i BadPigObject.obj
 0001:00004af0       ??$construct@PADAAPAD@?$allocator_traits@V?$allocator@D@std@@@std@@SAXAAV?$allocator@D@1@PAPADAAPAD@Z 00405af0 f i BadPigObject.obj
 0001:00004b30       ??$destroy@PAD@?$_Wrap_alloc@V?$allocator@D@std@@@std@@QAEXPAPAD@Z 00405b30 f i BadPigObject.obj
 0001:00004b60       ??$destroy@PAD@?$allocator@D@std@@QAEXPAPAD@Z 00405b60 f i BadPigObject.obj
 0001:00004b80       ??$destroy@PAD@?$allocator_traits@V?$allocator@D@std@@@std@@SAXAAV?$allocator@D@1@PAPAD@Z 00405b80 f i BadPigObject.obj
 0001:00004bb0       ??$forward@AAPAD@std@@YAAAPADAAPAD@Z 00405bb0 f i BadPigObject.obj
 0001:00004bd0       ??0?$_String_alloc@$0A@U?$_String_base_types@DV?$allocator@D@std@@@std@@@std@@QAE@ABV?$allocator@D@1@@Z 00405bd0 f i BadPigObject.obj
 0001:00004c00       ??0?$_String_val@U?$_Simple_types@D@std@@@std@@QAE@XZ 00405c00 f i BadPigObject.obj
 0001:00004c40       ??0?$_Wrap_alloc@V?$allocator@D@std@@@std@@QAE@XZ 00405c40 f i BadPigObject.obj
 0001:00004c70       ??0?$allocator@D@std@@QAE@XZ 00405c70 f i BadPigObject.obj
 0001:00004c90       ??0?$basic_string@DU?$char_traits@D@std@@V?$allocator@D@2@@std@@QAE@PBD@Z 00405c90 f i BadPigObject.obj
 0001:00004cf0       ??0BadPigObject@@QAE@PAVGoldMinerEngine@@HHHHH@Z 00405cf0 f   BadPigObject.obj
 0001:00004f60       ?DoUpdate@HookableObject@@UAEXH@Z 00405f60 f   HookableObject.obj
 0001:00005000       ??0ImageData@@QAE@XZ       00406000 f i BadPigObject.obj
 0001:00005040       ??0_Generic_error_category@std@@QAE@XZ 00406040 f i BadPigObject.obj
 0001:00005070       ??0_Iostream_error_category@std@@QAE@XZ 00406070 f i BadPigObject.obj
 0001:000050a0       ??0_System_error_category@std@@QAE@XZ 004060a0 f i BadPigObject.obj
 0001:000050d0       ??0error_category@std@@QAE@XZ 004060d0 f i BadPigObject.obj
 0001:00005100       ??0error_condition@std@@QAE@HABVerror_category@1@@Z 00406100 f i BadPigObject.obj
 0001:00005140       ??1BadPigObject@@UAE@XZ    00406140 f   BadPigObject.obj
 0001:00005230       ??1ImageData@@QAE@XZ       00406230 f i BadPigObject.obj
 0001:00005270       ??1_Generic_error_category@std@@UAE@XZ 00406270 f i BadPigObject.obj
 0001:000052a0       ??1_Iostream_error_category@std@@UAE@XZ 004062a0 f i BadPigObject.obj
 0001:000052d0       ??1_System_error_category@std@@UAE@XZ 004062d0 f i BadPigObject.obj
 0001:00005300       ??1error_category@std@@UAE@XZ 00406300 f i BadPigObject.obj
 0001:00005330       ??2@YAPAXIPAX@Z            00406330 f i BadPigObject.obj
 0001:00005350       ??3@YAXPAX0@Z              00406350 f i BadPigObject.obj
 0001:00005370       ??8error_category@std@@QBE_NABV01@@Z 00406370 f i BadPigObject.obj
 0001:000053b0       ??8error_condition@std@@QBE_NABV01@@Z 004063b0 f i BadPigObject.obj
 0001:00005430       ??_GBadPigObject@@UAEPAXI@Z 00406430 f i BadPigObject.obj
 0001:00005430       ??_EBadPigObject@@UAEPAXI@Z 00406430 f i BadPigObject.obj
 0001:00005480       ??_G_Generic_error_category@std@@UAEPAXI@Z 00406480 f i BadPigObject.obj
 0001:00005480       ??_E_Generic_error_category@std@@UAEPAXI@Z 00406480 f i BadPigObject.obj
 0001:000054d0       ??_E_Iostream_error_category@std@@UAEPAXI@Z 004064d0 f i BadPigObject.obj
 0001:000054d0       ??_G_Iostream_error_category@std@@UAEPAXI@Z 004064d0 f i BadPigObject.obj
 0001:00005520       ??_G_System_error_category@std@@UAEPAXI@Z 00406520 f i BadPigObject.obj
 0001:00005520       ??_E_System_error_category@std@@UAEPAXI@Z 00406520 f i BadPigObject.obj
 0001:00005570       ??_Gerror_category@std@@UAEPAXI@Z 00406570 f i BadPigObject.obj
 0001:00005570       ??_Eerror_category@std@@UAEPAXI@Z 00406570 f i BadPigObject.obj
 0001:000055c0       ?DiamondSearchAlgorithm@BadPigObject@@QAEXXZ 004065c0 f   BadPigObject.obj
 0001:00005960       ?DoUpdate@BadPigObject@@UAEXH@Z 00406960 f   BadPigObject.obj
 0001:00005cd0       ?DoUpdate@StaticObject@@UAEXH@Z 00406cd0 f   StaticObject.obj
 0001:00005da0       ?Draw@BadPigObject@@UAEXXZ 00406da0 f   BadPigObject.obj
 0001:00006210       ?BombDetection@HookableObject@@QAEXXZ 00407210 f   HookableObject.obj
 0001:00006330       ?DrawScreenString@BaseEngine@@QAEXHHPBDIPAVFont@@@Z 00407330 f i BadPigObject.obj
 0001:00006380       ?GetEngine@DisplayableObject@@QBEPAVBaseEngine@@XZ 00407380 f i BadPigObject.obj
 0001:000063a0       ?GetHeight@ImageData@@QBEHXZ 004073a0 f i BadPigObject.obj
 0001:000063c0       ?GetSDLSurface@BaseEngine@@QAEPAUSDL_Surface@@XZ 004073c0 f i BadPigObject.obj
 0001:000063e0       ?GetTime@BaseEngine@@QBEHXZ 004073e0 f i BadPigObject.obj
 0001:00006400       ?GetWidth@ImageData@@QBEHXZ 00407400 f i BadPigObject.obj
 0001:00006420       ?IsVisible@DisplayableObject@@QBE_NXZ 00407420 f i BadPigObject.obj
 0001:00006440       ?Notify@DisplayableObject@@UAEJH@Z 00407440 f i BadPigObject.obj
 0001:00006460       ?Redraw@BaseEngine@@QAEX_N@Z 00407460 f i BadPigObject.obj
 0001:000064a0       ?RedrawObjects@DisplayableObject@@QAEXXZ 004074a0 f i BadPigObject.obj
 0001:000064d0       ?SetVisible@DisplayableObject@@QAEX_N@Z 004074d0 f i BadPigObject.obj
 0001:00006500       ?_Copy@?$basic_string@DU?$char_traits@D@std@@V?$allocator@D@2@@std@@QAEXII@Z 00407500 f i BadPigObject.obj
 0001:00006730       ?_Eos@?$basic_string@DU?$char_traits@D@std@@V?$allocator@D@2@@std@@QAEXI@Z 00407730 f i BadPigObject.obj
 0001:00006780       ?_Getal@?$_String_alloc@$0A@U?$_String_base_types@DV?$allocator@D@std@@@std@@@std@@QBE?AU?$_Wrap_alloc@V?$allocator@D@std@@@2@XZ 00407780 f i BadPigObject.obj
 0001:000067b0       ?_Grow@?$basic_string@DU?$char_traits@D@std@@V?$allocator@D@2@@std@@QAE_NI_N@Z 004077b0 f i BadPigObject.obj
 0001:00006890       ?_Inside@?$basic_string@DU?$char_traits@D@std@@V?$allocator@D@2@@std@@QAE_NPBD@Z 00407890 f i BadPigObject.obj
 0001:000068f0       ?_Myptr@?$_String_val@U?$_Simple_types@D@std@@@std@@QAEPADXZ 004078f0 f i BadPigObject.obj
 0001:00006940       ?_Myptr@?$_String_val@U?$_Simple_types@D@std@@@std@@QBEPBDXZ 00407940 f i BadPigObject.obj
 0001:00006990       ?_Tidy@?$basic_string@DU?$char_traits@D@std@@V?$allocator@D@2@@std@@QAEX_NI@Z 00407990 f i BadPigObject.obj
 0001:00006a60       ?_Xlen@?$basic_string@DU?$char_traits@D@std@@V?$allocator@D@2@@std@@QBEXXZ 00407a60 f i BadPigObject.obj
 0001:00006a90       ?_Xran@?$basic_string@DU?$char_traits@D@std@@V?$allocator@D@2@@std@@QBEXXZ 00407a90 f i BadPigObject.obj
 0001:00006ac0       ?allocate@?$_Wrap_alloc@V?$allocator@D@std@@@std@@QAEPADI@Z 00407ac0 f i BadPigObject.obj
 0001:00006af0       ?allocate@?$allocator@D@std@@QAEPADI@Z 00407af0 f i BadPigObject.obj
 0001:00006b20       ?assign@?$basic_string@DU?$char_traits@D@std@@V?$allocator@D@2@@std@@QAEAAV12@ABV12@II@Z 00407b20 f i BadPigObject.obj
 0001:00006c00       ?assign@?$basic_string@DU?$char_traits@D@std@@V?$allocator@D@2@@std@@QAEAAV12@PBD@Z 00407c00 f i BadPigObject.obj
 0001:00006c40       ?assign@?$basic_string@DU?$char_traits@D@std@@V?$allocator@D@2@@std@@QAEAAV12@PBDI@Z 00407c40 f i BadPigObject.obj
 0001:00006cf0       ?assign@?$char_traits@D@std@@SAXAADABD@Z 00407cf0 f i BadPigObject.obj
 0001:00006d10       ?category@error_code@std@@QBEABVerror_category@2@XZ 00407d10 f i BadPigObject.obj
 0001:00006d30       ?category@error_condition@std@@QBEABVerror_category@2@XZ 00407d30 f i BadPigObject.obj
 0001:00006d50       ?copy@?$char_traits@D@std@@SAPADPADPBDI@Z 00407d50 f i BadPigObject.obj
 0001:00006da0       ?deallocate@?$_Wrap_alloc@V?$allocator@D@std@@@std@@QAEXPADI@Z 00407da0 f i BadPigObject.obj
 0001:00006dd0       ?deallocate@?$allocator@D@std@@QAEXPADI@Z 00407dd0 f i BadPigObject.obj
 0001:00006e00       ?default_error_condition@_System_error_category@std@@UBE?AVerror_condition@2@H@Z 00407e00 f i BadPigObject.obj
 0001:00006e70       ?default_error_condition@error_category@std@@UBE?AVerror_condition@2@H@Z 00407e70 f i BadPigObject.obj
 0001:00006eb0       ?equivalent@error_category@std@@UBE_NABVerror_code@2@H@Z 00407eb0 f i BadPigObject.obj
 0001:00006f10       ?equivalent@error_category@std@@UBE_NHABVerror_condition@2@@Z 00407f10 f i BadPigObject.obj
 0001:00006f60       ?erase@?$basic_string@DU?$char_traits@D@std@@V?$allocator@D@2@@std@@QAEAAV12@I@Z 00407f60 f i BadPigObject.obj
 0001:00006fb0       ?erase@?$basic_string@DU?$char_traits@D@std@@V?$allocator@D@2@@std@@QAEAAV12@II@Z 00407fb0 f i BadPigObject.obj
 0001:00007060       ?generic_category@std@@YAABVerror_category@1@XZ 00408060 f i BadPigObject.obj
 0001:00007080       ?length@?$char_traits@D@std@@SAIPBD@Z 00408080 f i BadPigObject.obj
 0001:000070d0       ?max_size@?$_Wrap_alloc@V?$allocator@D@std@@@std@@QBEIXZ 004080d0 f i BadPigObject.obj
 0001:00007100       ?max_size@?$allocator@D@std@@QBEIXZ 00408100 f i BadPigObject.obj
 0001:00007120       ?max_size@?$allocator_traits@V?$allocator@D@std@@@std@@SAIABV?$allocator@D@2@@Z 00408120 f i BadPigObject.obj
 0001:00007140       ?max_size@?$basic_string@DU?$char_traits@D@std@@V?$allocator@D@2@@std@@QBEIXZ 00408140 f i BadPigObject.obj
 0001:000071a0       ?message@_Generic_error_category@std@@UBE?AV?$basic_string@DU?$char_traits@D@std@@V?$allocator@D@2@@2@H@Z 004081a0 f i BadPigObject.obj
 0001:00007210       ?message@_Iostream_error_category@std@@UBE?AV?$basic_string@DU?$char_traits@D@std@@V?$allocator@D@2@@2@H@Z 00408210 f i BadPigObject.obj
 0001:00007290       ?message@_System_error_category@std@@UBE?AV?$basic_string@DU?$char_traits@D@std@@V?$allocator@D@2@@2@H@Z 00408290 f i BadPigObject.obj
 0001:00007300       ?move@?$char_traits@D@std@@SAPADPADPBDI@Z 00408300 f i BadPigObject.obj
 0001:00007350       ?name@_Generic_error_category@std@@UBEPBDXZ 00408350 f i BadPigObject.obj
 0001:00007370       ?name@_Iostream_error_category@std@@UBEPBDXZ 00408370 f i BadPigObject.obj
 0001:00007390       ?name@_System_error_category@std@@UBEPBDXZ 00408390 f i BadPigObject.obj
 0001:000073b0       ?size@?$basic_string@DU?$char_traits@D@std@@V?$allocator@D@2@@std@@QBEIXZ 004083b0 f i BadPigObject.obj
 0001:000073d0       ?system_category@std@@YAABVerror_category@1@XZ 004083d0 f i BadPigObject.obj
 0001:000073f0       ?value@error_code@std@@QBEHXZ 004083f0 f i BadPigObject.obj
 0001:00007410       ?value@error_condition@std@@QBEHXZ 00408410 f i BadPigObject.obj
 0001:00007430       _hypot                     00408430 f i BadPigObject.obj
 0001:00007470       ??0BombObject@@QAE@XZ      00408470 f   BombObject.obj
 0001:00007520       ??0TileManager@@QAE@HH@Z   00408520 f i BombObject.obj
 0001:000075a0       ??1BombObject@@QAE@XZ      004085a0 f   BombObject.obj
 0001:00007620       ??1TileManager@@QAE@XZ     00408620 f i BombObject.obj
 0001:00007680       ?DrawBackgroundOval@BaseEngine@@QAEXHHHHI@Z 00408680 f i BombObject.obj
 0001:000076d0       ?DrawBackgroundRectangle@BaseEngine@@QAEXHHHHI@Z 004086d0 f i BombObject.obj
 0001:00007720       ?DrawTile@TileManager@@UBEXPAVBaseEngine@@PAUSDL_Surface@@HH@Z 00408720 f i BombObject.obj
 0001:00007790       ?DrawTile@TileManager@@UBEXPAVBaseEngine@@PAUSDL_Surface@@HHHH@Z 00408790 f i BombObject.obj
 0001:000077e0       ?DrawTileAt@BombObject@@UBEXPAVBaseEngine@@PAUSDL_Surface@@HHHH@Z 004087e0 f   BombObject.obj
 0001:000079a0       ?GetBackground@BaseEngine@@QAEPAUSDL_Surface@@XZ 004089a0 f i BombObject.obj
 0001:000079c0       ?GetTileHeight@TileManager@@QBEHXZ 004089c0 f i BombObject.obj
 0001:000079e0       ?GetTileWidth@TileManager@@QBEHXZ 004089e0 f i BombObject.obj
 0001:00007a00       ?GetValue@TileManager@@QBEHHH@Z 00408a00 f i BombObject.obj
 0001:00007a40       ??0DiamondObject@@QAE@PAVGoldMinerEngine@@HHHH@Z 00408a40 f   DiamondObject.obj
 0001:00007be0       ??1DiamondObject@@UAE@XZ   00408be0 f   DiamondObject.obj
 0001:00007c60       ??_EDiamondObject@@UAEPAXI@Z 00408c60 f i DiamondObject.obj
 0001:00007c60       ??_GDiamondObject@@UAEPAXI@Z 00408c60 f i DiamondObject.obj
 0001:00007cb0       ?DoUpdate@DiamondObject@@UAEXH@Z 00408cb0 f   DiamondObject.obj
 0001:00007d10       ?Draw@DiamondObject@@UAEXXZ 00408d10 f   DiamondObject.obj
 0001:00007e00       ?PigComes@DiamondObject@@QAEXXZ 00408e00 f   DiamondObject.obj
 0001:00007e30       ?pigLeaves@DiamondObject@@QAEXXZ 00408e30 f   DiamondObject.obj
 0001:00007e60       ?pigWaits@DiamondObject@@QAEXXZ 00408e60 f   DiamondObject.obj
 0001:00007ea0       ??0DynamicObject@@QAE@PAVGoldMinerEngine@@HHHHH@Z 00408ea0 f   DynamicObject.obj
 0001:00007f20       ??1DynamicObject@@UAE@XZ   00408f20 f   DynamicObject.obj
 0001:00007f50       ??_GDynamicObject@@UAEPAXI@Z 00408f50 f i DynamicObject.obj
 0001:00007f50       ??_EDynamicObject@@UAEPAXI@Z 00408f50 f i DynamicObject.obj
 0001:00007fa0       ?CollsionDetection@DynamicObject@@QAE_NPAVHookableObject@@@Z 00408fa0 f   DynamicObject.obj
 0001:000080a0       ?DoUpdate@DynamicObject@@UAEXH@Z 004090a0 f   DynamicObject.obj
 0001:000080f0       ?Draw@DynamicObject@@UAEXXZ 004090f0 f   DynamicObject.obj
 0001:00008110       ?GetYCentre@DisplayableObject@@QBEHXZ 00409110 f i DynamicObject.obj
 0001:00008150       ??$?0U?$_List_node@V?$basic_string@DU?$char_traits@D@std@@V?$allocator@D@2@@std@@PAX@std@@@?$allocator@V?$basic_string@DU?$char_traits@D@std@@V?$allocator@D@2@@std@@@std@@QAE@ABV?$allocator@U?$_List_node@V?$basic_string@DU?$char_traits@D@std@@V?$allocator@D@2@@std@@PAX@std@@@1@@Z 00409150 f i GoldMinerEngine.obj
 0001:00008170       ??$?6DU?$char_traits@D@std@@V?$allocator@D@1@@std@@YAAAV?$basic_ostream@DU?$char_traits@D@std@@@0@AAV10@ABV?$basic_string@DU?$char_traits@D@std@@V?$allocator@D@2@@0@@Z 00409170 f i GoldMinerEngine.obj
 0001:00008550       ??$?6U?$char_traits@D@std@@@std@@YAAAV?$basic_ostream@DU?$char_traits@D@std@@@0@AAV10@PBD@Z 00409550 f i GoldMinerEngine.obj
 0001:000089e0       ??$?8DD@std@@YA_NABV?$allocator@D@0@0@Z 004099e0 f i GoldMinerEngine.obj
 0001:00008a00       ??$?8U?$_List_node@V?$basic_string@DU?$char_traits@D@std@@V?$allocator@D@2@@std@@PAX@std@@U01@@std@@YA_NABV?$allocator@U?$_List_node@V?$basic_string@DU?$char_traits@D@std@@V?$allocator@D@2@@std@@PAX@std@@@0@0@Z 00409a00 f i GoldMinerEngine.obj
 0001:00008a20       ??$?8V?$allocator@D@std@@V01@@std@@YA_NABU?$_Wrap_alloc@V?$allocator@D@std@@@0@0@Z 00409a20 f i GoldMinerEngine.obj
 0001:00008a60       ??$?8V?$allocator@U?$_List_node@V?$basic_string@DU?$char_traits@D@std@@V?$allocator@D@2@@std@@PAX@std@@@std@@V01@@std@@YA_NABU?$_Wrap_alloc@V?$allocator@U?$_List_node@V?$basic_string@DU?$char_traits@D@std@@V?$allocator@D@2@@std@@PAX@std@@@std@@@0@0@Z 00409a60 f i GoldMinerEngine.obj
 0001:00008aa0       ??$?9V?$allocator@D@std@@V01@@std@@YA_NABU?$_Wrap_alloc@V?$allocator@D@std@@@0@0@Z 00409aa0 f i GoldMinerEngine.obj
 0001:00008af0       ??$?9V?$allocator@U?$_List_node@V?$basic_string@DU?$char_traits@D@std@@V?$allocator@D@2@@std@@PAX@std@@@std@@V01@@std@@YA_NABU?$_Wrap_alloc@V?$allocator@U?$_List_node@V?$basic_string@DU?$char_traits@D@std@@V?$allocator@D@2@@std@@PAX@std@@@std@@@0@0@Z 00409af0 f i GoldMinerEngine.obj
 0001:00008b40       ??$_Allocate@U?$_List_node@V?$basic_string@DU?$char_traits@D@std@@V?$allocator@D@2@@std@@PAX@std@@@std@@YAPAU?$_List_node@V?$basic_string@DU?$char_traits@D@std@@V?$allocator@D@2@@std@@PAX@0@IPAU10@@Z 00409b40 f i GoldMinerEngine.obj
 0001:00008ba0       ??$_Buynode@ABV?$basic_string@DU?$char_traits@D@std@@V?$allocator@D@2@@std@@@?$_List_buy@V?$basic_string@DU?$char_traits@D@std@@V?$allocator@D@2@@std@@V?$allocator@V?$basic_string@DU?$char_traits@D@std@@V?$allocator@D@2@@std@@@2@@std@@QAEPAU?$_List_node@V?$basic_string@DU?$char_traits@D@std@@V?$allocator@D@2@@std@@PAX@1@PAU21@0ABV?$basic_string@DU?$char_traits@D@std@@V?$allocator@D@2@@1@@Z 00409ba0 f i GoldMinerEngine.obj
 0001:00008cc0       ??$_Fgetc@D@std@@YA_NAADPAU_iobuf@@@Z 00409cc0 f i GoldMinerEngine.obj
 0001:00008d10       ??$_Fputc@D@std@@YA_NDPAU_iobuf@@@Z 00409d10 f i GoldMinerEngine.obj
 0001:00008d60       ??$_Insert@ABV?$basic_string@DU?$char_traits@D@std@@V?$allocator@D@2@@std@@@?$list@V?$basic_string@DU?$char_traits@D@std@@V?$allocator@D@2@@std@@V?$allocator@V?$basic_string@DU?$char_traits@D@std@@V?$allocator@D@2@@std@@@2@@std@@QAEXV?$_List_unchecked_const_iterator@V?$_List_val@U?$_List_simple_types@V?$basic_string@DU?$char_traits@D@std@@V?$allocator@D@2@@std@@@std@@@std@@U_Iterator_base0@2@@1@ABV?$basic_string@DU?$char_traits@D@std@@V?$allocator@D@2@@1@@Z 00409d60 f i GoldMinerEngine.obj
 0001:00008e10       ??$_Move@AAI@std@@YA$$QAIAAI@Z 00409e10 f i GoldMinerEngine.obj
 0001:00008e30       ??$_Move@AAPAU?$_List_node@V?$basic_string@DU?$char_traits@D@std@@V?$allocator@D@2@@std@@PAX@std@@@std@@YA$$QAPAU?$_List_node@V?$basic_string@DU?$char_traits@D@std@@V?$allocator@D@2@@std@@PAX@0@AAPAU10@@Z 00409e30 f i GoldMinerEngine.obj
 0001:00008e50       ??$_Swap_adl@PAU?$_List_node@V?$basic_string@DU?$char_traits@D@std@@V?$allocator@D@2@@std@@PAX@std@@@std@@YAXAAPAU?$_List_node@V?$basic_string@DU?$char_traits@D@std@@V?$allocator@D@2@@std@@PAX@0@0@Z 00409e50 f i GoldMinerEngine.obj
 0001:00008e80       ??$_Ungetc@D@std@@YA_NABDPAU_iobuf@@@Z 00409e80 f i GoldMinerEngine.obj
 0001:00008ed0       ??$addressof@PAU?$_List_node@V?$basic_string@DU?$char_traits@D@std@@V?$allocator@D@2@@std@@PAX@std@@@std@@YAPAPAU?$_List_node@V?$basic_string@DU?$char_traits@D@std@@V?$allocator@D@2@@std@@PAX@0@AAPAU10@@Z 00409ed0 f i GoldMinerEngine.obj
 0001:00008ef0       ??$addressof@V?$basic_string@DU?$char_traits@D@std@@V?$allocator@D@2@@std@@@std@@YAPAV?$basic_string@DU?$char_traits@D@std@@V?$allocator@D@2@@0@AAV10@@Z 00409ef0 f i GoldMinerEngine.obj
 0001:00008f10       ??$construct@PAU?$_List_node@V?$basic_string@DU?$char_traits@D@std@@V?$allocator@D@2@@std@@PAX@std@@AAPAU12@@?$_Wrap_alloc@V?$allocator@U?$_List_node@V?$basic_string@DU?$char_traits@D@std@@V?$allocator@D@2@@std@@PAX@std@@@std@@@std@@QAEXPAPAU?$_List_node@V?$basic_string@DU?$char_traits@D@std@@V?$allocator@D@2@@std@@PAX@1@AAPAU21@@Z 00409f10 f i GoldMinerEngine.obj
 0001:00008f50       ??$construct@PAU?$_List_node@V?$basic_string@DU?$char_traits@D@std@@V?$allocator@D@2@@std@@PAX@std@@AAPAU12@@?$allocator@U?$_List_node@V?$basic_string@DU?$char_traits@D@std@@V?$allocator@D@2@@std@@PAX@std@@@std@@QAEXPAPAU?$_List_node@V?$basic_string@DU?$char_traits@D@std@@V?$allocator@D@2@@std@@PAX@1@AAPAU21@@Z 00409f50 f i GoldMinerEngine.obj
 0001:00009000       ??$construct@PAU?$_List_node@V?$basic_string@DU?$char_traits@D@std@@V?$allocator@D@2@@std@@PAX@std@@AAPAU12@@?$allocator_traits@V?$allocator@U?$_List_node@V?$basic_string@DU?$char_traits@D@std@@V?$allocator@D@2@@std@@PAX@std@@@std@@@std@@SAXAAV?$allocator@U?$_List_node@V?$basic_string@DU?$char_traits@D@std@@V?$allocator@D@2@@std@@PAX@std@@@1@PAPAU?$_List_node@V?$basic_string@DU?$char_traits@D@std@@V?$allocator@D@2@@std@@PAX@1@AAPAU31@@Z 0040a000 f i GoldMinerEngine.obj
 0001:00009040       ??$construct@V?$basic_string@DU?$char_traits@D@std@@V?$allocator@D@2@@std@@ABV12@@?$_Wrap_alloc@V?$allocator@U?$_List_node@V?$basic_string@DU?$char_traits@D@std@@V?$allocator@D@2@@std@@PAX@std@@@std@@@std@@QAEXPAV?$basic_string@DU?$char_traits@D@std@@V?$allocator@D@2@@1@ABV21@@Z 0040a040 f i GoldMinerEngine.obj
 0001:00009080       ??$construct@V?$basic_string@DU?$char_traits@D@std@@V?$allocator@D@2@@std@@ABV12@@?$allocator@U?$_List_node@V?$basic_string@DU?$char_traits@D@std@@V?$allocator@D@2@@std@@PAX@std@@@std@@QAEXPAV?$basic_string@DU?$char_traits@D@std@@V?$allocator@D@2@@1@ABV21@@Z 0040a080 f i GoldMinerEngine.obj
 0001:00009130       ??$construct@V?$basic_string@DU?$char_traits@D@std@@V?$allocator@D@2@@std@@ABV12@@?$allocator_traits@V?$allocator@U?$_List_node@V?$basic_string@DU?$char_traits@D@std@@V?$allocator@D@2@@std@@PAX@std@@@std@@@std@@SAXAAV?$allocator@U?$_List_node@V?$basic_string@DU?$char_traits@D@std@@V?$allocator@D@2@@std@@PAX@std@@@1@PAV?$basic_string@DU?$char_traits@D@std@@V?$allocator@D@2@@1@ABV31@@Z 0040a130 f i GoldMinerEngine.obj
 0001:00009170       ??$destroy@PAU?$_List_node@V?$basic_string@DU?$char_traits@D@std@@V?$allocator@D@2@@std@@PAX@std@@@?$_Wrap_alloc@V?$allocator@U?$_List_node@V?$basic_string@DU?$char_traits@D@std@@V?$allocator@D@2@@std@@PAX@std@@@std@@@std@@QAEXPAPAU?$_List_node@V?$basic_string@DU?$char_traits@D@std@@V?$allocator@D@2@@std@@PAX@1@@Z 0040a170 f i GoldMinerEngine.obj
 0001:000091a0       ??$destroy@PAU?$_List_node@V?$basic_string@DU?$char_traits@D@std@@V?$allocator@D@2@@std@@PAX@std@@@?$allocator@U?$_List_node@V?$basic_string@DU?$char_traits@D@std@@V?$allocator@D@2@@std@@PAX@std@@@std@@QAEXPAPAU?$_List_node@V?$basic_string@DU?$char_traits@D@std@@V?$allocator@D@2@@std@@PAX@1@@Z 0040a1a0 f i GoldMinerEngine.obj
 0001:000091c0       ??$destroy@PAU?$_List_node@V?$basic_string@DU?$char_traits@D@std@@V?$allocator@D@2@@std@@PAX@std@@@?$allocator_traits@V?$allocator@U?$_List_node@V?$basic_string@DU?$char_traits@D@std@@V?$allocator@D@2@@std@@PAX@std@@@std@@@std@@SAXAAV?$allocator@U?$_List_node@V?$basic_string@DU?$char_traits@D@std@@V?$allocator@D@2@@std@@PAX@std@@@1@PAPAU?$_List_node@V?$basic_string@DU?$char_traits@D@std@@V?$allocator@D@2@@std@@PAX@1@@Z 0040a1c0 f i GoldMinerEngine.obj
 0001:000091f0       ??$destroy@V?$basic_string@DU?$char_traits@D@std@@V?$allocator@D@2@@std@@@?$_Wrap_alloc@V?$allocator@U?$_List_node@V?$basic_string@DU?$char_traits@D@std@@V?$allocator@D@2@@std@@PAX@std@@@std@@@std@@QAEXPAV?$basic_string@DU?$char_traits@D@std@@V?$allocator@D@2@@1@@Z 0040a1f0 f i GoldMinerEngine.obj
 0001:00009220       ??$destroy@V?$basic_string@DU?$char_traits@D@std@@V?$allocator@D@2@@std@@@?$allocator@U?$_List_node@V?$basic_string@DU?$char_traits@D@std@@V?$allocator@D@2@@std@@PAX@std@@@std@@QAEXPAV?$basic_string@DU?$char_traits@D@std@@V?$allocator@D@2@@1@@Z 0040a220 f i GoldMinerEngine.obj
 0001:00009250       ??$destroy@V?$basic_string@DU?$char_traits@D@std@@V?$allocator@D@2@@std@@@?$allocator_traits@V?$allocator@U?$_List_node@V?$basic_string@DU?$char_traits@D@std@@V?$allocator@D@2@@std@@PAX@std@@@std@@@std@@SAXAAV?$allocator@U?$_List_node@V?$basic_string@DU?$char_traits@D@std@@V?$allocator@D@2@@std@@PAX@std@@@1@PAV?$basic_string@DU?$char_traits@D@std@@V?$allocator@D@2@@1@@Z 0040a250 f i GoldMinerEngine.obj
 0001:00009280       ??$endl@DU?$char_traits@D@std@@@std@@YAAAV?$basic_ostream@DU?$char_traits@D@std@@@0@AAV10@@Z 0040a280 f i GoldMinerEngine.obj
 0001:000092d0       ??$forward@AAPAU?$_List_node@V?$basic_string@DU?$char_traits@D@std@@V?$allocator@D@2@@std@@PAX@std@@@std@@YAAAPAU?$_List_node@V?$basic_string@DU?$char_traits@D@std@@V?$allocator@D@2@@std@@PAX@0@AAPAU10@@Z 0040a2d0 f i GoldMinerEngine.obj
 0001:000092f0       ??$forward@ABV?$basic_string@DU?$char_traits@D@std@@V?$allocator@D@2@@std@@@std@@YAABV?$basic_string@DU?$char_traits@D@std@@V?$allocator@D@2@@0@ABV10@@Z 0040a2f0 f i GoldMinerEngine.obj
 0001:00009310       ??$getline@DU?$char_traits@D@std@@V?$allocator@D@2@@std@@YAAAV?$basic_istream@DU?$char_traits@D@std@@@0@$$QAV10@AAV?$basic_string@DU?$char_traits@D@std@@V?$allocator@D@2@@0@D@Z 0040a310 f i GoldMinerEngine.obj
 0001:00009590       ??$getline@DU?$char_traits@D@std@@V?$allocator@D@2@@std@@YAAAV?$basic_istream@DU?$char_traits@D@std@@@0@AAV10@AAV?$basic_string@DU?$char_traits@D@std@@V?$allocator@D@2@@0@@Z 0040a590 f i GoldMinerEngine.obj
 0001:000095f0       ??$merge@P6A_NABV?$basic_string@DU?$char_traits@D@std@@V?$allocator@D@2@@std@@0@Z@?$list@V?$basic_string@DU?$char_traits@D@std@@V?$allocator@D@2@@std@@V?$allocator@V?$basic_string@DU?$char_traits@D@std@@V?$allocator@D@2@@std@@@2@@std@@QAEXAAV01@P6A_NABV?$basic_string@DU?$char_traits@D@std@@V?$allocator@D@2@@1@1@Z@Z 0040a5f0 f i GoldMinerEngine.obj
 0001:00009770       ??$move@AAV?$basic_istream@DU?$char_traits@D@std@@@std@@@std@@YA$$QAV?$basic_istream@DU?$char_traits@D@std@@@0@AAV10@@Z 0040a770 f i GoldMinerEngine.obj
 0001:00009790       ??$sort@P6A_NABV?$basic_string@DU?$char_traits@D@std@@V?$allocator@D@2@@std@@0@Z@?$list@V?$basic_string@DU?$char_traits@D@std@@V?$allocator@D@2@@std@@V?$allocator@V?$basic_string@DU?$char_traits@D@std@@V?$allocator@D@2@@std@@@2@@std@@QAEXP6A_NABV?$basic_string@DU?$char_traits@D@std@@V?$allocator@D@2@@1@0@Z@Z 0040a790 f i GoldMinerEngine.obj
 0001:00009b00       ??$swap@I@std@@YAXAAI0@Z   0040ab00 f i GoldMinerEngine.obj
 0001:00009b60       ??$swap@PAU?$_List_node@V?$basic_string@DU?$char_traits@D@std@@V?$allocator@D@2@@std@@PAX@std@@@std@@YAXAAPAU?$_List_node@V?$basic_string@DU?$char_traits@D@std@@V?$allocator@D@2@@std@@PAX@0@0@Z 0040ab60 f i GoldMinerEngine.obj
 0001:00009bc0       ??$use_facet@V?$codecvt@DDH@std@@@std@@YAABV?$codecvt@DDH@0@ABVlocale@0@@Z 0040abc0 f i GoldMinerEngine.obj
 0001:00009d10       ??0?$_List_alloc@$0A@U?$_List_base_types@V?$basic_string@DU?$char_traits@D@std@@V?$allocator@D@2@@std@@V?$allocator@V?$basic_string@DU?$char_traits@D@std@@V?$allocator@D@2@@std@@@2@@std@@@std@@QAE@ABV?$allocator@V?$basic_string@DU?$char_traits@D@std@@V?$allocator@D@2@@std@@@1@@Z 0040ad10 f i GoldMinerEngine.obj
 0001:00009d50       ??0?$_List_buy@V?$basic_string@DU?$char_traits@D@std@@V?$allocator@D@2@@std@@V?$allocator@V?$basic_string@DU?$char_traits@D@std@@V?$allocator@D@2@@std@@@2@@std@@QAE@ABV?$allocator@V?$basic_string@DU?$char_traits@D@std@@V?$allocator@D@2@@std@@@1@@Z 0040ad50 f i GoldMinerEngine.obj
 0001:00009d80       ??0?$_List_const_iterator@V?$_List_val@U?$_List_simple_types@V?$basic_string@DU?$char_traits@D@std@@V?$allocator@D@2@@std@@@std@@@std@@@std@@QAE@PAU?$_List_node@V?$basic_string@DU?$char_traits@D@std@@V?$allocator@D@2@@std@@PAX@1@PBV?$_List_val@U?$_List_simple_types@V?$basic_string@DU?$char_traits@D@std@@V?$allocator@D@2@@std@@@std@@@1@@Z 0040ad80 f i GoldMinerEngine.obj
 0001:00009dc0       ??0?$_List_const_iterator@V?$_List_val@U?$_List_simple_types@V?$basic_string@DU?$char_traits@D@std@@V?$allocator@D@2@@std@@@std@@@std@@@std@@QAE@XZ 0040adc0 f i GoldMinerEngine.obj
 0001:00009df0       ??0?$_List_iterator@V?$_List_val@U?$_List_simple_types@V?$basic_string@DU?$char_traits@D@std@@V?$allocator@D@2@@std@@@std@@@std@@@std@@QAE@PAU?$_List_node@V?$basic_string@DU?$char_traits@D@std@@V?$allocator@D@2@@std@@PAX@1@PBV?$_List_val@U?$_List_simple_types@V?$basic_string@DU?$char_traits@D@std@@V?$allocator@D@2@@std@@@std@@@1@@Z 0040adf0 f i GoldMinerEngine.obj
 0001:00009e30       ??0?$_List_iterator@V?$_List_val@U?$_List_simple_types@V?$basic_string@DU?$char_traits@D@std@@V?$allocator@D@2@@std@@@std@@@std@@@std@@QAE@XZ 0040ae30 f i GoldMinerEngine.obj
 0001:00009e60       ??0?$_List_unchecked_const_iterator@V?$_List_val@U?$_List_simple_types@V?$basic_string@DU?$char_traits@D@std@@V?$allocator@D@2@@std@@@std@@@std@@U_Iterator_base0@2@@std@@QAE@PAU?$_List_node@V?$basic_string@DU?$char_traits@D@std@@V?$allocator@D@2@@std@@PAX@1@PBV?$_List_val@U?$_List_simple_types@V?$basic_string@DU?$char_traits@D@std@@V?$allocator@D@2@@std@@@std@@@1@@Z 0040ae60 f i GoldMinerEngine.obj
 0001:00009ea0       ??0?$_List_unchecked_const_iterator@V?$_List_val@U?$_List_simple_types@V?$basic_string@DU?$char_traits@D@std@@V?$allocator@D@2@@std@@@std@@@std@@U_Iterator_base0@2@@std@@QAE@XZ 0040aea0 f i GoldMinerEngine.obj
 0001:00009ed0       ??0?$_List_unchecked_iterator@V?$_List_val@U?$_List_simple_types@V?$basic_string@DU?$char_traits@D@std@@V?$allocator@D@2@@std@@@std@@@std@@@std@@QAE@PAU?$_List_node@V?$basic_string@DU?$char_traits@D@std@@V?$allocator@D@2@@std@@PAX@1@PBV?$_List_val@U?$_List_simple_types@V?$basic_string@DU?$char_traits@D@std@@V?$allocator@D@2@@std@@@std@@@1@@Z 0040aed0 f i GoldMinerEngine.obj
 0001:00009f10       ??0?$_List_val@U?$_List_simple_types@V?$basic_string@DU?$char_traits@D@std@@V?$allocator@D@2@@std@@@std@@@std@@QAE@XZ 0040af10 f i GoldMinerEngine.obj
 0001:00009f50       ??0?$_String_const_iterator@V?$_String_val@U?$_Simple_types@D@std@@@std@@@std@@QAE@PBDPBU_Container_base0@1@@Z 0040af50 f i GoldMinerEngine.obj
 0001:00009f90       ??0?$_String_iterator@V?$_String_val@U?$_Simple_types@D@std@@@std@@@std@@QAE@PADPBU_Container_base0@1@@Z 0040af90 f i GoldMinerEngine.obj
 0001:00009fd0       ??0?$_Wrap_alloc@V?$allocator@D@std@@@std@@QAE@ABV?$allocator@D@1@@Z 0040afd0 f i GoldMinerEngine.obj
 0001:0000a000       ??0?$_Wrap_alloc@V?$allocator@U?$_List_node@V?$basic_string@DU?$char_traits@D@std@@V?$allocator@D@2@@std@@PAX@std@@@std@@@std@@QAE@XZ 0040b000 f i GoldMinerEngine.obj
 0001:0000a030       ??0?$allocator@D@std@@QAE@ABV01@@Z 0040b030 f i GoldMinerEngine.obj
 0001:0000a050       ??0?$allocator@U?$_List_node@V?$basic_string@DU?$char_traits@D@std@@V?$allocator@D@2@@std@@PAX@std@@@std@@QAE@ABV01@@Z 0040b050 f i GoldMinerEngine.obj
 0001:0000a070       ??0?$allocator@U?$_List_node@V?$basic_string@DU?$char_traits@D@std@@V?$allocator@D@2@@std@@PAX@std@@@std@@QAE@XZ 0040b070 f i GoldMinerEngine.obj
 0001:0000a090       ??0?$allocator@V?$basic_string@DU?$char_traits@D@std@@V?$allocator@D@2@@std@@@std@@QAE@XZ 0040b090 f i GoldMinerEngine.obj
 0001:0000a0b0       ??0?$basic_filebuf@DU?$char_traits@D@std@@@std@@QAE@PAU_iobuf@@@Z 0040b0b0 f i GoldMinerEngine.obj
 0001:0000a140       ??0?$basic_ifstream@DU?$char_traits@D@std@@@std@@QAE@XZ 0040b140 f i GoldMinerEngine.obj
 0001:0000a250       ??0?$basic_ofstream@DU?$char_traits@D@std@@@std@@QAE@XZ 0040b250 f i GoldMinerEngine.obj
 0001:0000a360       ??0?$basic_string@DU?$char_traits@D@std@@V?$allocator@D@2@@std@@QAE@ABV01@@Z 0040b360 f i GoldMinerEngine.obj
 0001:0000a3d0       ??0?$basic_string@DU?$char_traits@D@std@@V?$allocator@D@2@@std@@QAE@ABV01@IIABV?$allocator@D@1@@Z 0040b3d0 f i GoldMinerEngine.obj
 0001:0000a430       ??0?$basic_string@DU?$char_traits@D@std@@V?$allocator@D@2@@std@@QAE@ID@Z 0040b430 f i GoldMinerEngine.obj
 0001:0000a490       ??0?$basic_string@DU?$char_traits@D@std@@V?$allocator@D@2@@std@@QAE@XZ 0040b490 f i GoldMinerEngine.obj
 0001:0000a4d0       ??0?$fpos@H@std@@QAE@H_J@Z 0040b4d0 f i GoldMinerEngine.obj
 0001:0000a520       ??0?$fpos@H@std@@QAE@_J@Z  0040b520 f i GoldMinerEngine.obj
 0001:0000a580       ??0?$list@V?$basic_string@DU?$char_traits@D@std@@V?$allocator@D@2@@std@@V?$allocator@V?$basic_string@DU?$char_traits@D@std@@V?$allocator@D@2@@std@@@2@@std@@QAE@ABV?$allocator@V?$basic_string@DU?$char_traits@D@std@@V?$allocator@D@2@@std@@@1@@Z 0040b580 f i GoldMinerEngine.obj
 0001:0000a5b0       ??0?$list@V?$basic_string@DU?$char_traits@D@std@@V?$allocator@D@2@@std@@V?$allocator@V?$basic_string@DU?$char_traits@D@std@@V?$allocator@D@2@@std@@@2@@std@@QAE@XZ 0040b5b0 f i GoldMinerEngine.obj
 0001:0000a5e0       ??0GoldMinerEngine@@QAE@XZ 0040b5e0 f   GoldMinerEngine.obj
 0001:0000a990       ??0_Sentry_base@?$basic_istream@DU?$char_traits@D@std@@@std@@QAE@AAV12@@Z 0040b990 f i GoldMinerEngine.obj
 0001:0000aa10       ??0_Sentry_base@?$basic_ostream@DU?$char_traits@D@std@@@std@@QAE@AAV12@@Z 0040ba10 f i GoldMinerEngine.obj
 0001:0000aa90       ??0sentry@?$basic_istream@DU?$char_traits@D@std@@@std@@QAE@AAV12@_N@Z 0040ba90 f i GoldMinerEngine.obj
 0001:0000ab20       ??0sentry@?$basic_ostream@DU?$char_traits@D@std@@@std@@QAE@AAV12@@Z 0040bb20 f i GoldMinerEngine.obj
 0001:0000ac30       ??1?$_List_alloc@$0A@U?$_List_base_types@V?$basic_string@DU?$char_traits@D@std@@V?$allocator@D@2@@std@@V?$allocator@V?$basic_string@DU?$char_traits@D@std@@V?$allocator@D@2@@std@@@2@@std@@@std@@QAE@XZ 0040bc30 f i GoldMinerEngine.obj
 0001:0000ac60       ??1?$_List_buy@V?$basic_string@DU?$char_traits@D@std@@V?$allocator@D@2@@std@@V?$allocator@V?$basic_string@DU?$char_traits@D@std@@V?$allocator@D@2@@std@@@2@@std@@QAE@XZ 0040bc60 f i GoldMinerEngine.obj
 0001:0000ac90       ??1?$basic_filebuf@DU?$char_traits@D@std@@@std@@UAE@XZ 0040bc90 f i GoldMinerEngine.obj
 0001:0000acf0       ??1?$basic_ifstream@DU?$char_traits@D@std@@@std@@UAE@XZ 0040bcf0 f i GoldMinerEngine.obj
 0001:0000ad60       ??1?$basic_ofstream@DU?$char_traits@D@std@@@std@@UAE@XZ 0040bd60 f i GoldMinerEngine.obj
 0001:0000add0       ??1?$basic_string@DU?$char_traits@D@std@@V?$allocator@D@2@@std@@QAE@XZ 0040bdd0 f i GoldMinerEngine.obj
 0001:0000ae00       ??1?$list@V?$basic_string@DU?$char_traits@D@std@@V?$allocator@D@2@@std@@V?$allocator@V?$basic_string@DU?$char_traits@D@std@@V?$allocator@D@2@@std@@@2@@std@@QAE@XZ 0040be00 f i GoldMinerEngine.obj
 0001:0000ae30       ??1GoldMinerEngine@@UAE@XZ 0040be30 f   GoldMinerEngine.obj
 0001:0000af80       ??1_Sentry_base@?$basic_istream@DU?$char_traits@D@std@@@std@@QAE@XZ 0040bf80 f i GoldMinerEngine.obj
 0001:0000aff0       ??1_Sentry_base@?$basic_ostream@DU?$char_traits@D@std@@@std@@QAE@XZ 0040bff0 f i GoldMinerEngine.obj
 0001:0000b060       ??1locale@std@@QAE@XZ      0040c060 f i GoldMinerEngine.obj
 0001:0000b0d0       ??1sentry@?$basic_istream@DU?$char_traits@D@std@@@std@@QAE@XZ 0040c0d0 f i GoldMinerEngine.obj
 0001:0000b100       ??1sentry@?$basic_ostream@DU?$char_traits@D@std@@@std@@QAE@XZ 0040c100 f i GoldMinerEngine.obj
 0001:0000b140       ??4?$basic_string@DU?$char_traits@D@std@@V?$allocator@D@2@@std@@QAEAAV01@ABV01@@Z 0040c140 f i GoldMinerEngine.obj
 0001:0000b1e0       ??4?$basic_string@DU?$char_traits@D@std@@V?$allocator@D@2@@std@@QAEAAV01@PBD@Z 0040c1e0 f i GoldMinerEngine.obj
 0001:0000b210       ??8?$_List_const_iterator@V?$_List_val@U?$_List_simple_types@V?$basic_string@DU?$char_traits@D@std@@V?$allocator@D@2@@std@@@std@@@std@@@std@@QBE_NABV01@@Z 0040c210 f i GoldMinerEngine.obj
 0001:0000b260       ??9?$_List_const_iterator@V?$_List_val@U?$_List_simple_types@V?$basic_string@DU?$char_traits@D@std@@V?$allocator@D@2@@std@@@std@@@std@@@std@@QBE_NABV01@@Z 0040c260 f i GoldMinerEngine.obj
 0001:0000b2b0       ??B?$fpos@H@std@@QBE_JXZ   0040c2b0 f i GoldMinerEngine.obj
 0001:0000b2f0       ??Bsentry@?$basic_istream@DU?$char_traits@D@std@@@std@@QBE_NXZ 0040c2f0 f i GoldMinerEngine.obj
 0001:0000b310       ??Bsentry@?$basic_ostream@DU?$char_traits@D@std@@@std@@QBE_NXZ 0040c310 f i GoldMinerEngine.obj
 0001:0000b330       ??D?$_List_const_iterator@V?$_List_val@U?$_List_simple_types@V?$basic_string@DU?$char_traits@D@std@@V?$allocator@D@2@@std@@@std@@@std@@@std@@QBEABV?$basic_string@DU?$char_traits@D@std@@V?$allocator@D@2@@1@XZ 0040c330 f i GoldMinerEngine.obj
 0001:0000b360       ??D?$_List_iterator@V?$_List_val@U?$_List_simple_types@V?$basic_string@DU?$char_traits@D@std@@V?$allocator@D@2@@std@@@std@@@std@@@std@@QBEAAV?$basic_string@DU?$char_traits@D@std@@V?$allocator@D@2@@1@XZ 0040c360 f i GoldMinerEngine.obj
 0001:0000b390       ??D?$_String_const_iterator@V?$_String_val@U?$_Simple_types@D@std@@@std@@@std@@QBEABDXZ 0040c390 f i GoldMinerEngine.obj
 0001:0000b3b0       ??D?$_String_iterator@V?$_String_val@U?$_Simple_types@D@std@@@std@@@std@@QBEAADXZ 0040c3b0 f i GoldMinerEngine.obj
 0001:0000b3e0       ??E?$_List_const_iterator@V?$_List_val@U?$_List_simple_types@V?$basic_string@DU?$char_traits@D@std@@V?$allocator@D@2@@std@@@std@@@std@@@std@@QAEAAV01@XZ 0040c3e0 f i GoldMinerEngine.obj
 0001:0000b420       ??E?$_List_iterator@V?$_List_val@U?$_List_simple_types@V?$basic_string@DU?$char_traits@D@std@@V?$allocator@D@2@@std@@@std@@@std@@@std@@QAEAAV01@XZ 0040c420 f i GoldMinerEngine.obj
 0001:0000b450       ??Y?$basic_string@DU?$char_traits@D@std@@V?$allocator@D@2@@std@@QAEAAV01@ABV01@@Z 0040c450 f i GoldMinerEngine.obj
 0001:0000b480       ??Y?$basic_string@DU?$char_traits@D@std@@V?$allocator@D@2@@std@@QAEAAV01@D@Z 0040c480 f i GoldMinerEngine.obj
 0001:0000b4b0       ??_D?$basic_ifstream@DU?$char_traits@D@std@@@std@@QAEXXZ 0040c4b0 f i GoldMinerEngine.obj
 0001:0000b4f0       ??_D?$basic_ofstream@DU?$char_traits@D@std@@@std@@QAEXXZ 0040c4f0 f i GoldMinerEngine.obj
 0001:0000b524       ??_E?$basic_ifstream@DU?$char_traits@D@std@@@std@@$4PPPPPPPM@A@AEPAXI@Z 0040c524 f i GoldMinerEngine.obj
 0001:0000b52e       ??_E?$basic_ofstream@DU?$char_traits@D@std@@@std@@$4PPPPPPPM@A@AEPAXI@Z 0040c52e f i GoldMinerEngine.obj
 0001:0000b540       ??_E?$basic_filebuf@DU?$char_traits@D@std@@@std@@UAEPAXI@Z 0040c540 f i GoldMinerEngine.obj
 0001:0000b540       ??_G?$basic_filebuf@DU?$char_traits@D@std@@@std@@UAEPAXI@Z 0040c540 f i GoldMinerEngine.obj
 0001:0000b590       ??_G?$basic_ifstream@DU?$char_traits@D@std@@@std@@UAEPAXI@Z 0040c590 f i GoldMinerEngine.obj
 0001:0000b590       ??_E?$basic_ifstream@DU?$char_traits@D@std@@@std@@UAEPAXI@Z 0040c590 f i GoldMinerEngine.obj
 0001:0000b5e0       ??_G?$basic_ofstream@DU?$char_traits@D@std@@@std@@UAEPAXI@Z 0040c5e0 f i GoldMinerEngine.obj
 0001:0000b5e0       ??_E?$basic_ofstream@DU?$char_traits@D@std@@@std@@UAEPAXI@Z 0040c5e0 f i GoldMinerEngine.obj
 0001:0000b630       ??_G?$basic_string@DU?$char_traits@D@std@@V?$allocator@D@2@@std@@QAEPAXI@Z 0040c630 f i GoldMinerEngine.obj
 0001:0000b680       ??_GGoldMinerEngine@@UAEPAXI@Z 0040c680 f i GoldMinerEngine.obj
 0001:0000b680       ??_EGoldMinerEngine@@UAEPAXI@Z 0040c680 f i GoldMinerEngine.obj
 0001:0000b6d0       ?BackgroundAnimation@GoldMinerEngine@@AAEXXZ 0040c6d0 f   GoldMinerEngine.obj
 0001:0000b7d0       ?DisplayResults@GoldMinerEngine@@QAEXXZ 0040c7d0 f   GoldMinerEngine.obj
 0001:0000be50       ?DrawAllTiles@TileManager@@QBEXPAVBaseEngine@@PAUSDL_Surface@@HHHH@Z 0040ce50 f i GoldMinerEngine.obj
 0001:0000beb0       ?DrawBackgroundString@BaseEngine@@QAEXHHPBDIPAVFont@@@Z 0040ceb0 f i GoldMinerEngine.obj
 0001:0000bf00       ?DrawBackgroundThickLine@BaseEngine@@QAEXHHHHIH@Z 0040cf00 f i GoldMinerEngine.obj
 0001:0000bf80       ?DrawObjects@GoldMinerEngine@@UAEXXZ 0040cf80 f   GoldMinerEngine.obj
 0001:0000bfc0       ?DrawStringsOnTop@GoldMinerEngine@@UAEXXZ 0040cfc0 f   GoldMinerEngine.obj
 0001:0000c230       ?DrawableObjectsChanged@BaseEngine@@QAEXXZ 0040d230 f i GoldMinerEngine.obj
 0001:0000c260       ?GameAction@GoldMinerEngine@@UAEXXZ 0040d260 f   GoldMinerEngine.obj
 0001:0000c300       ?GetModifiedTime@BaseEngine@@UBEHXZ 0040d300 f i GoldMinerEngine.obj
 0001:0000c330       ?GetName@GoldMinerEngine@@QAEXH@Z 0040d330 f   GoldMinerEngine.obj
 0001:0000c560       ?GetScreenWidth@BaseEngine@@QBEHXZ 0040d560 f i GoldMinerEngine.obj
 0001:0000c580       ?IncreaseTimeOffset@BaseEngine@@QAEXH@Z 0040d580 f i GoldMinerEngine.obj
 0001:0000c5b0       ?InitialiseLevelObjects@GoldMinerEngine@@QAEXHH@Z 0040d5b0 f   GoldMinerEngine.obj
 0001:0000cad0       ?InitialiseObjects@GoldMinerEngine@@UAEHXZ 0040dad0 f   GoldMinerEngine.obj
 0001:0000cf00       ?IsTimeToAct@BaseEngine@@QBE_NXZ 0040df00 f i GoldMinerEngine.obj
 0001:0000cf50       ?KeyDown@GoldMinerEngine@@UAEXH@Z 0040df50 f   GoldMinerEngine.obj
 0001:0000d270       ?MouseDown@GoldMinerEngine@@UAEXHHH@Z 0040e270 f   GoldMinerEngine.obj
 0001:0000d370       ?OneRoundEnd@GoldMinerEngine@@QAEXXZ 0040e370 f   GoldMinerEngine.obj
 0001:0000d440       ?RenderImgForBA@GoldMinerEngine@@AAEXAAVImageData@@@Z 0040e440 f   GoldMinerEngine.obj
 0001:0000d4a0       ?ResetAll@GoldMinerEngine@@AAEXXZ 0040e4a0 f   GoldMinerEngine.obj
 0001:0000d5d0       ?ResetStableObjects@GoldMinerEngine@@QAEXHHH@Z 0040e5d0 f   GoldMinerEngine.obj
 0001:0000d640       ?SetBaseTilesPositionOnScreen@TileManager@@QAEXHH@Z 0040e640 f i GoldMinerEngine.obj
 0001:0000d670       ?SetExitWithCode@BaseEngine@@QAEXH@Z 0040e670 f i GoldMinerEngine.obj
 0001:0000d6a0       ?SetNextLevel@GoldMinerEngine@@AAEXXZ 0040e6a0 f   GoldMinerEngine.obj
 0001:0000d8e0       ?SetSize@TileManager@@QAEXHH@Z 0040e8e0 f i GoldMinerEngine.obj
 0001:0000d990       ?SetTimeToAct@BaseEngine@@QAEXH@Z 0040e990 f i GoldMinerEngine.obj
 0001:0000d9c0       ?SetValue@TileManager@@QAEXHHH@Z 0040e9c0 f i GoldMinerEngine.obj
 0001:0000da00       ?SetupBackgroundBuffer@GoldMinerEngine@@UAEXXZ 0040ea00 f   GoldMinerEngine.obj
 0001:0000e250       ?StoreResults@GoldMinerEngine@@QAEXXZ 0040f250 f   GoldMinerEngine.obj
 0001:0000e440       ?UnDrawStrings@GoldMinerEngine@@UAEXXZ 0040f440 f   GoldMinerEngine.obj
 0001:0000e490       ?UndrawObjects@GoldMinerEngine@@UAEXXZ 0040f490 f   GoldMinerEngine.obj
 0001:0000e4d0       ?_Adopt@_Iterator_base0@std@@QAEXPBX@Z 0040f4d0 f i GoldMinerEngine.obj
 0001:0000e4f0       ?_Buyheadnode@?$_List_alloc@$0A@U?$_List_base_types@V?$basic_string@DU?$char_traits@D@std@@V?$allocator@D@2@@std@@V?$allocator@V?$basic_string@DU?$char_traits@D@std@@V?$allocator@D@2@@std@@@2@@std@@@std@@QAEPAU?$_List_node@V?$basic_string@DU?$char_traits@D@std@@V?$allocator@D@2@@std@@PAX@2@XZ 0040f4f0 f i GoldMinerEngine.obj
 0001:0000e520       ?_Buynode0@?$_List_alloc@$0A@U?$_List_base_types@V?$basic_string@DU?$char_traits@D@std@@V?$allocator@D@2@@std@@V?$allocator@V?$basic_string@DU?$char_traits@D@std@@V?$allocator@D@2@@std@@@2@@std@@@std@@QAEPAU?$_List_node@V?$basic_string@DU?$char_traits@D@std@@V?$allocator@D@2@@std@@PAX@2@PAU32@0@Z 0040f520 f i GoldMinerEngine.obj
 0001:0000e690       ?_Change_alloc@?$_String_alloc@$0A@U?$_String_base_types@DV?$allocator@D@std@@@std@@@std@@QAEXABU?$_Wrap_alloc@V?$allocator@D@std@@@2@@Z 0040f690 f i GoldMinerEngine.obj
 0001:0000e6b0       ?_Chassign@?$basic_string@DU?$char_traits@D@std@@V?$allocator@D@2@@std@@QAEXIID@Z 0040f6b0 f i GoldMinerEngine.obj
 0001:0000e720       ?_Endwrite@?$basic_filebuf@DU?$char_traits@D@std@@@std@@IAE_NXZ 0040f720 f i GoldMinerEngine.obj
 0001:0000e9e0       ?_Freeheadnode@?$_List_alloc@$0A@U?$_List_base_types@V?$basic_string@DU?$char_traits@D@std@@V?$allocator@D@2@@std@@V?$allocator@V?$basic_string@DU?$char_traits@D@std@@V?$allocator@D@2@@std@@@2@@std@@@std@@QAEXPAU?$_List_node@V?$basic_string@DU?$char_traits@D@std@@V?$allocator@D@2@@std@@PAX@2@@Z 0040f9e0 f i GoldMinerEngine.obj
 0001:0000ea80       ?_Freenode@?$_List_buy@V?$basic_string@DU?$char_traits@D@std@@V?$allocator@D@2@@std@@V?$allocator@V?$basic_string@DU?$char_traits@D@std@@V?$allocator@D@2@@std@@@2@@std@@QAEXPAU?$_List_node@V?$basic_string@DU?$char_traits@D@std@@V?$allocator@D@2@@std@@PAX@2@@Z 0040fa80 f i GoldMinerEngine.obj
 0001:0000eb60       ?_Getal@?$_List_alloc@$0A@U?$_List_base_types@V?$basic_string@DU?$char_traits@D@std@@V?$allocator@D@2@@std@@V?$allocator@V?$basic_string@DU?$char_traits@D@std@@V?$allocator@D@2@@std@@@2@@std@@@std@@QBE?AU?$_Wrap_alloc@V?$allocator@U?$_List_node@V?$basic_string@DU?$char_traits@D@std@@V?$allocator@D@2@@std@@PAX@std@@@std@@@2@XZ 0040fb60 f i GoldMinerEngine.obj
 0001:0000eb90       ?_Getfacet@locale@std@@QBEPBVfacet@12@I@Z 0040fb90 f i GoldMinerEngine.obj
 0001:0000ec40       ?_Incsize@?$list@V?$basic_string@DU?$char_traits@D@std@@V?$allocator@D@2@@std@@V?$allocator@V?$basic_string@DU?$char_traits@D@std@@V?$allocator@D@2@@std@@@2@@std@@QAEXI@Z 0040fc40 f i GoldMinerEngine.obj
 0001:0000eca0       ?_Init@?$basic_filebuf@DU?$char_traits@D@std@@@std@@IAEXPAU_iobuf@@W4_Initfl@12@@Z 0040fca0 f i GoldMinerEngine.obj
 0001:0000ed90       ?_Initcvt@?$basic_filebuf@DU?$char_traits@D@std@@@std@@IAEXPBV?$codecvt@DDH@2@@Z 0040fd90 f i GoldMinerEngine.obj
 0001:0000edf0       ?_Lock@?$basic_filebuf@DU?$char_traits@D@std@@@std@@UAEXXZ 0040fdf0 f i GoldMinerEngine.obj
 0001:0000ee30       ?_Mynode@?$_List_unchecked_const_iterator@V?$_List_val@U?$_List_simple_types@V?$basic_string@DU?$char_traits@D@std@@V?$allocator@D@2@@std@@@std@@@std@@U_Iterator_base0@2@@std@@QBEPAU?$_List_node@V?$basic_string@DU?$char_traits@D@std@@V?$allocator@D@2@@std@@PAX@2@XZ 0040fe30 f i GoldMinerEngine.obj
 0001:0000ee50       ?_Myval@?$_List_val@U?$_List_simple_types@V?$basic_string@DU?$char_traits@D@std@@V?$allocator@D@2@@std@@@std@@@std@@SAAAV?$basic_string@DU?$char_traits@D@std@@V?$allocator@D@2@@2@PAU?$_List_node@V?$basic_string@DU?$char_traits@D@std@@V?$allocator@D@2@@std@@PAX@2@@Z 0040fe50 f i GoldMinerEngine.obj
 0001:0000ee70       ?_Nextnode@?$_List_val@U?$_List_simple_types@V?$basic_string@DU?$char_traits@D@std@@V?$allocator@D@2@@std@@@std@@@std@@SAAAPAU?$_List_node@V?$basic_string@DU?$char_traits@D@std@@V?$allocator@D@2@@std@@PAX@2@PAU32@@Z 0040fe70 f i GoldMinerEngine.obj
 0001:0000ee90       ?_Prevnode@?$_List_val@U?$_List_simple_types@V?$basic_string@DU?$char_traits@D@std@@V?$allocator@D@2@@std@@@std@@@std@@SAAAPAU?$_List_node@V?$basic_string@DU?$char_traits@D@std@@V?$allocator@D@2@@std@@PAX@2@PAU32@@Z 0040fe90 f i GoldMinerEngine.obj
 0001:0000eeb0       ?_Reset_back@?$basic_filebuf@DU?$char_traits@D@std@@@std@@AAEXXZ 0040feb0 f i GoldMinerEngine.obj
 0001:0000ef10       ?_Set_back@?$basic_filebuf@DU?$char_traits@D@std@@@std@@AAEXXZ 0040ff10 f i GoldMinerEngine.obj
 0001:0000ef90       ?_Splice@?$list@V?$basic_string@DU?$char_traits@D@std@@V?$allocator@D@2@@std@@V?$allocator@V?$basic_string@DU?$char_traits@D@std@@V?$allocator@D@2@@std@@@2@@std@@QAEXV?$_List_const_iterator@V?$_List_val@U?$_List_simple_types@V?$basic_string@DU?$char_traits@D@std@@V?$allocator@D@2@@std@@@std@@@std@@@2@AAV12@00I@Z 0040ff90 f i GoldMinerEngine.obj
 0001:0000f010       ?_Splice_same@?$list@V?$basic_string@DU?$char_traits@D@std@@V?$allocator@D@2@@std@@V?$allocator@V?$basic_string@DU?$char_traits@D@std@@V?$allocator@D@2@@std@@@2@@std@@QAEXV?$_List_const_iterator@V?$_List_val@U?$_List_simple_types@V?$basic_string@DU?$char_traits@D@std@@V?$allocator@D@2@@std@@@std@@@std@@@2@AAV12@00I@Z 00410010 f i GoldMinerEngine.obj
 0001:0000f190       ?_Swap_alloc@?$_List_alloc@$0A@U?$_List_base_types@V?$basic_string@DU?$char_traits@D@std@@V?$allocator@D@2@@std@@V?$allocator@V?$basic_string@DU?$char_traits@D@std@@V?$allocator@D@2@@std@@@2@@std@@@std@@QAEXAAV12@@Z 00410190 f i GoldMinerEngine.obj
 0001:0000f1b0       ?_Tidy@?$list@V?$basic_string@DU?$char_traits@D@std@@V?$allocator@D@2@@std@@V?$allocator@V?$basic_string@DU?$char_traits@D@std@@V?$allocator@D@2@@std@@@2@@std@@QAEXXZ 004101b0 f i GoldMinerEngine.obj
 0001:0000f1e0       ?_Unchecked_end@?$list@V?$basic_string@DU?$char_traits@D@std@@V?$allocator@D@2@@std@@V?$allocator@V?$basic_string@DU?$char_traits@D@std@@V?$allocator@D@2@@std@@@2@@std@@QAE?AV?$_List_unchecked_iterator@V?$_List_val@U?$_List_simple_types@V?$basic_string@DU?$char_traits@D@std@@V?$allocator@D@2@@std@@@std@@@std@@@2@XZ 004101e0 f i GoldMinerEngine.obj
 0001:0000f220       ?_Unlock@?$basic_filebuf@DU?$char_traits@D@std@@@std@@UAEXXZ 00410220 f i GoldMinerEngine.obj
 0001:0000f260       ?allocate@?$_Wrap_alloc@V?$allocator@U?$_List_node@V?$basic_string@DU?$char_traits@D@std@@V?$allocator@D@2@@std@@PAX@std@@@std@@@std@@QAEPAU?$_List_node@V?$basic_string@DU?$char_traits@D@std@@V?$allocator@D@2@@std@@PAX@2@I@Z 00410260 f i GoldMinerEngine.obj
 0001:0000f290       ?allocate@?$allocator@U?$_List_node@V?$basic_string@DU?$char_traits@D@std@@V?$allocator@D@2@@std@@PAX@std@@@std@@QAEPAU?$_List_node@V?$basic_string@DU?$char_traits@D@std@@V?$allocator@D@2@@std@@PAX@2@I@Z 00410290 f i GoldMinerEngine.obj
 0001:0000f2c0       ?append@?$basic_string@DU?$char_traits@D@std@@V?$allocator@D@2@@std@@QAEAAV12@ABV12@@Z 004102c0 f i GoldMinerEngine.obj
 0001:0000f300       ?append@?$basic_string@DU?$char_traits@D@std@@V?$allocator@D@2@@std@@QAEAAV12@ABV12@II@Z 00410300 f i GoldMinerEngine.obj
 0001:0000f3f0       ?append@?$basic_string@DU?$char_traits@D@std@@V?$allocator@D@2@@std@@QAEAAV12@ID@Z 004103f0 f i GoldMinerEngine.obj
 0001:0000f490       ?assign@?$basic_string@DU?$char_traits@D@std@@V?$allocator@D@2@@std@@QAEAAV12@ABV12@@Z 00410490 f i GoldMinerEngine.obj
 0001:0000f4d0       ?assign@?$basic_string@DU?$char_traits@D@std@@V?$allocator@D@2@@std@@QAEAAV12@ID@Z 004104d0 f i GoldMinerEngine.obj
 0001:0000f550       ?assign@?$char_traits@D@std@@SAPADPADID@Z 00410550 f i GoldMinerEngine.obj
 0001:0000f580       ?begin@?$basic_string@DU?$char_traits@D@std@@V?$allocator@D@2@@std@@QAE?AV?$_String_iterator@V?$_String_val@U?$_Simple_types@D@std@@@std@@@2@XZ 00410580 f i GoldMinerEngine.obj
 0001:0000f5c0       ?begin@?$list@V?$basic_string@DU?$char_traits@D@std@@V?$allocator@D@2@@std@@V?$allocator@V?$basic_string@DU?$char_traits@D@std@@V?$allocator@D@2@@std@@@2@@std@@QAE?AV?$_List_iterator@V?$_List_val@U?$_List_simple_types@V?$basic_string@DU?$char_traits@D@std@@V?$allocator@D@2@@std@@@std@@@std@@@2@XZ 004105c0 f i GoldMinerEngine.obj
 0001:0000f610       ?c_str@?$basic_string@DU?$char_traits@D@std@@V?$allocator@D@2@@std@@QBEPBDXZ 00410610 f i GoldMinerEngine.obj
 0001:0000f640       ?clear@?$list@V?$basic_string@DU?$char_traits@D@std@@V?$allocator@D@2@@std@@V?$allocator@V?$basic_string@DU?$char_traits@D@std@@V?$allocator@D@2@@std@@@2@@std@@QAEXXZ 00410640 f i GoldMinerEngine.obj
 0001:0000f6f0       ?close@?$basic_filebuf@DU?$char_traits@D@std@@@std@@QAEPAV12@XZ 004106f0 f i GoldMinerEngine.obj
 0001:0000f780       ?close@?$basic_ifstream@DU?$char_traits@D@std@@@std@@QAEXXZ 00410780 f i GoldMinerEngine.obj
 0001:0000f7d0       ?close@?$basic_ofstream@DU?$char_traits@D@std@@@std@@QAEXXZ 004107d0 f i GoldMinerEngine.obj
 0001:0000f820       ?comp@@YA_NABV?$basic_string@DU?$char_traits@D@std@@V?$allocator@D@2@@std@@0@Z 00410820 f   GoldMinerEngine.obj
 0001:0000f9f0       ?compare@?$char_traits@D@std@@SAHPBD0I@Z 004109f0 f i GoldMinerEngine.obj
 0001:0000fa40       ?deallocate@?$_Wrap_alloc@V?$allocator@U?$_List_node@V?$basic_string@DU?$char_traits@D@std@@V?$allocator@D@2@@std@@PAX@std@@@std@@@std@@QAEXPAU?$_List_node@V?$basic_string@DU?$char_traits@D@std@@V?$allocator@D@2@@std@@PAX@2@I@Z 00410a40 f i GoldMinerEngine.obj
 0001:0000fa70       ?deallocate@?$allocator@U?$_List_node@V?$basic_string@DU?$char_traits@D@std@@V?$allocator@D@2@@std@@PAX@std@@@std@@QAEXPAU?$_List_node@V?$basic_string@DU?$char_traits@D@std@@V?$allocator@D@2@@std@@PAX@2@I@Z 00410a70 f i GoldMinerEngine.obj
 0001:0000faa0       ?empty@?$list@V?$basic_string@DU?$char_traits@D@std@@V?$allocator@D@2@@std@@V?$allocator@V?$basic_string@DU?$char_traits@D@std@@V?$allocator@D@2@@std@@@2@@std@@QBE_NXZ 00410aa0 f i GoldMinerEngine.obj
 0001:0000fae0       ?end@?$list@V?$basic_string@DU?$char_traits@D@std@@V?$allocator@D@2@@std@@V?$allocator@V?$basic_string@DU?$char_traits@D@std@@V?$allocator@D@2@@std@@@2@@std@@QAE?AV?$_List_iterator@V?$_List_val@U?$_List_simple_types@V?$basic_string@DU?$char_traits@D@std@@V?$allocator@D@2@@std@@@std@@@std@@@2@XZ 00410ae0 f i GoldMinerEngine.obj
 0001:0000fb20       ?eof@?$char_traits@D@std@@SAHXZ 00410b20 f i GoldMinerEngine.obj
 0001:0000fb40       ?eq_int_type@?$char_traits@D@std@@SA_NABH0@Z 00410b40 f i GoldMinerEngine.obj
 0001:0000fb80       ?find@?$basic_string@DU?$char_traits@D@std@@V?$allocator@D@2@@std@@QBEIPBDI@Z 00410b80 f i GoldMinerEngine.obj
 0001:0000fbc0       ?find@?$basic_string@DU?$char_traits@D@std@@V?$allocator@D@2@@std@@QBEIPBDII@Z 00410bc0 f i GoldMinerEngine.obj
 0001:0000fcd0       ?find@?$char_traits@D@std@@SAPBDPBDIABD@Z 00410cd0 f i GoldMinerEngine.obj
 0001:0000fd20       ?get_allocator@?$basic_string@DU?$char_traits@D@std@@V?$allocator@D@2@@std@@QBE?AV?$allocator@D@2@XZ 00410d20 f i GoldMinerEngine.obj
 0001:0000fd60       ?imbue@?$basic_filebuf@DU?$char_traits@D@std@@@std@@MAEXABVlocale@2@@Z 00410d60 f i GoldMinerEngine.obj
 0001:0000fda0       ?is_open@?$basic_filebuf@DU?$char_traits@D@std@@@std@@QBE_NXZ 00410da0 f i GoldMinerEngine.obj
 0001:0000fde0       ?is_open@?$basic_ifstream@DU?$char_traits@D@std@@@std@@QBE_NXZ 00410de0 f i GoldMinerEngine.obj
 0001:0000fe10       ?max_size@?$_Wrap_alloc@V?$allocator@U?$_List_node@V?$basic_string@DU?$char_traits@D@std@@V?$allocator@D@2@@std@@PAX@std@@@std@@@std@@QBEIXZ 00410e10 f i GoldMinerEngine.obj
 0001:0000fe40       ?max_size@?$allocator@U?$_List_node@V?$basic_string@DU?$char_traits@D@std@@V?$allocator@D@2@@std@@PAX@std@@@std@@QBEIXZ 00410e40 f i GoldMinerEngine.obj
 0001:0000fe60       ?max_size@?$allocator_traits@V?$allocator@U?$_List_node@V?$basic_string@DU?$char_traits@D@std@@V?$allocator@D@2@@std@@PAX@std@@@std@@@std@@SAIABV?$allocator@U?$_List_node@V?$basic_string@DU?$char_traits@D@std@@V?$allocator@D@2@@std@@PAX@std@@@2@@Z 00410e60 f i GoldMinerEngine.obj
 0001:0000fe80       ?max_size@?$list@V?$basic_string@DU?$char_traits@D@std@@V?$allocator@D@2@@std@@V?$allocator@V?$basic_string@DU?$char_traits@D@std@@V?$allocator@D@2@@std@@@2@@std@@QBEIXZ 00410e80 f i GoldMinerEngine.obj
 0001:0000feb0       ?not_eof@?$char_traits@D@std@@SAHABH@Z 00410eb0 f i GoldMinerEngine.obj
 0001:0000ff10       ?open@?$basic_filebuf@DU?$char_traits@D@std@@@std@@QAEPAV12@PBDHH@Z 00410f10 f i GoldMinerEngine.obj
 0001:00010000       ?open@?$basic_ifstream@DU?$char_traits@D@std@@@std@@QAEXPBDHH@Z 00411000 f i GoldMinerEngine.obj
 0001:00010080       ?open@?$basic_ofstream@DU?$char_traits@D@std@@@std@@QAEXPBDHH@Z 00411080 f i GoldMinerEngine.obj
 0001:00010100       ?overflow@?$basic_filebuf@DU?$char_traits@D@std@@@std@@MAEHH@Z 00411100 f i GoldMinerEngine.obj
 0001:00010550       ?pbackfail@?$basic_filebuf@DU?$char_traits@D@std@@@std@@MAEHH@Z 00411550 f i GoldMinerEngine.obj
 0001:00010700       ?push_back@?$list@V?$basic_string@DU?$char_traits@D@std@@V?$allocator@D@2@@std@@V?$allocator@V?$basic_string@DU?$char_traits@D@std@@V?$allocator@D@2@@std@@@2@@std@@QAEXABV?$basic_string@DU?$char_traits@D@std@@V?$allocator@D@2@@2@@Z 00411700 f i GoldMinerEngine.obj
 0001:00010750       ?seekoff@?$basic_filebuf@DU?$char_traits@D@std@@@std@@MAE?AV?$fpos@H@2@_JHH@Z 00411750 f i GoldMinerEngine.obj
 0001:00010870       ?seekpos@?$basic_filebuf@DU?$char_traits@D@std@@@std@@MAE?AV?$fpos@H@2@V32@H@Z 00411870 f i GoldMinerEngine.obj
 0001:000109a0       ?seekpos@?$fpos@H@std@@QBE_JXZ 004119a0 f i GoldMinerEngine.obj
 0001:000109d0       ?select_on_container_copy_construction@?$_Wrap_alloc@V?$allocator@D@std@@@std@@QBE?AU12@XZ 004119d0 f i GoldMinerEngine.obj
 0001:00010a10       ?select_on_container_copy_construction@?$allocator@D@std@@QBE?AV12@XZ 00411a10 f i GoldMinerEngine.obj
 0001:00010a40       ?select_on_container_copy_construction@?$allocator_traits@V?$allocator@D@std@@@std@@SA?AV?$allocator@D@2@ABV32@@Z 00411a40 f i GoldMinerEngine.obj
 0001:00010a70       ?set_up@GoldMinerEngine@@QAEXHHH@Z 00411a70 f   GoldMinerEngine.obj
 0001:00010fe0       ?setbuf@?$basic_filebuf@DU?$char_traits@D@std@@@std@@MAEPAV?$basic_streambuf@DU?$char_traits@D@std@@@2@PAD_J@Z 00411fe0 f i GoldMinerEngine.obj
 0001:00011080       ?splice@?$list@V?$basic_string@DU?$char_traits@D@std@@V?$allocator@D@2@@std@@V?$allocator@V?$basic_string@DU?$char_traits@D@std@@V?$allocator@D@2@@std@@@2@@std@@QAEXV?$_List_const_iterator@V?$_List_val@U?$_List_simple_types@V?$basic_string@DU?$char_traits@D@std@@V?$allocator@D@2@@std@@@std@@@std@@@2@AAV12@@Z 00412080 f i GoldMinerEngine.obj
 0001:00011110       ?state@?$fpos@H@std@@QBEHXZ 00412110 f i GoldMinerEngine.obj
 0001:00011130       ?stoi@std@@YAHABV?$basic_string@DU?$char_traits@D@std@@V?$allocator@D@2@@1@PAIH@Z 00412130 f i GoldMinerEngine.obj
 0001:00011220       ?substr@?$basic_string@DU?$char_traits@D@std@@V?$allocator@D@2@@std@@QBE?AV12@II@Z 00412220 f i GoldMinerEngine.obj
 0001:00011280       ?swap@?$list@V?$basic_string@DU?$char_traits@D@std@@V?$allocator@D@2@@std@@V?$allocator@V?$basic_string@DU?$char_traits@D@std@@V?$allocator@D@2@@std@@@2@@std@@QAEXAAV12@@Z 00412280 f i GoldMinerEngine.obj
 0001:00011370       ?sync@?$basic_filebuf@DU?$char_traits@D@std@@@std@@MAEHXZ 00412370 f i GoldMinerEngine.obj
 0001:00011410       ?to_char_type@?$char_traits@D@std@@SADABH@Z 00412410 f i GoldMinerEngine.obj
 0001:00011430       ?to_int_type@?$char_traits@D@std@@SAHABD@Z 00412430 f i GoldMinerEngine.obj
 0001:00011450       ?uflow@?$basic_filebuf@DU?$char_traits@D@std@@@std@@MAEHXZ 00412450 f i GoldMinerEngine.obj
 0001:00011850       ?underflow@?$basic_filebuf@DU?$char_traits@D@std@@@std@@MAEHXZ 00412850 f i GoldMinerEngine.obj
 0001:00011910       ??0GoldObject@@QAE@PAVGoldMinerEngine@@HHHH@Z 00412910 f   GoldObject.obj
 0001:00011af0       ??1GoldObject@@UAE@XZ      00412af0 f   GoldObject.obj
 0001:00011b70       ??_GGoldObject@@UAEPAXI@Z  00412b70 f i GoldObject.obj
 0001:00011b70       ??_EGoldObject@@UAEPAXI@Z  00412b70 f i GoldObject.obj
 0001:00011bc0       ?DoUpdate@GoldObject@@UAEXH@Z 00412bc0 f   GoldObject.obj
 0001:00011bf0       ?Draw@GoldObject@@UAEXXZ   00412bf0 f   GoldObject.obj
 0001:00011ce0       ??0HookableObject@@QAE@PAVGoldMinerEngine@@HHHH@Z 00412ce0 f   HookableObject.obj
 0001:00011d60       ??1HookableObject@@UAE@XZ  00412d60 f   HookableObject.obj
 0001:00011d90       ??_GHookableObject@@UAEPAXI@Z 00412d90 f i HookableObject.obj
 0001:00011d90       ??_EHookableObject@@UAEPAXI@Z 00412d90 f i HookableObject.obj
 0001:00011e20       ?Draw@HookableObject@@UAEXXZ 00412e20 f   HookableObject.obj
 0001:00011e50       ?RedrawWholeScreen@DisplayableObject@@QAEXXZ 00412e50 f i HookableObject.obj
 0001:00011e70       ?isHooked@HookableObject@@QAEHXZ 00412e70 f   HookableObject.obj
 0001:000122d0       ??$?8DU?$char_traits@D@std@@V?$allocator@D@1@@std@@YA_NABV?$basic_string@DU?$char_traits@D@std@@V?$allocator@D@2@@0@PBD@Z 004132d0 f i HookObject.obj
 0001:00012310       ??0HookObject@@QAE@PAVGoldMinerEngine@@HHHHHV?$basic_string@DU?$char_traits@D@std@@V?$allocator@D@2@@std@@H@Z 00413310 f   HookObject.obj
 0001:000125f0       ??1HookObject@@UAE@XZ      004135f0 f   HookObject.obj
 0001:00012630       ??_EHookObject@@UAEPAXI@Z  00413630 f i HookObject.obj
 0001:00012630       ??_GHookObject@@UAEPAXI@Z  00413630 f i HookObject.obj
 0001:00012680       ?Back@HookObject@@QAEXXZ   00413680 f   HookObject.obj
 0001:000127e0       ?DoUpdate@HookObject@@UAEXH@Z 004137e0 f   HookObject.obj
 0001:00012990       ?Draw@HookObject@@UAEXXZ   00413990 f   HookObject.obj
 0001:00012d80       ?GetTileManager@GoldMinerEngine@@QAEAAVBombObject@@XZ 00413d80 f i HookObject.obj
 0001:00012db0       ?Hook@HookObject@@QAEXH@Z  00413db0 f   HookObject.obj
 0001:000133b0       ?Pull@HookObject@@QAEXXZ   004143b0 f   HookObject.obj
 0001:00013490       ?Rotate@HookObject@@QAEXXZ 00414490 f   HookObject.obj
 0001:00013560       ?UpdateTile@TileManager@@QAEXPAVBaseEngine@@HHH@Z 00414560 f i HookObject.obj
 0001:000135d0       ?changeSpeed@HookObject@@QAEXHH@Z 004145d0 f   HookObject.obj
 0001:000136c0       ?compare@?$basic_string@DU?$char_traits@D@std@@V?$allocator@D@2@@std@@QBEHIIPBDI@Z 004146c0 f i HookObject.obj
 0001:000137b0       ?compare@?$basic_string@DU?$char_traits@D@std@@V?$allocator@D@2@@std@@QBEHPBD@Z 004147b0 f i HookObject.obj
 0001:00013800       ?getLen1@HookObject@@QAEHXZ 00414800 f   HookObject.obj
 0001:00013820       ?getLen2@HookObject@@QAEHXZ 00414820 f   HookObject.obj
 0001:00013840       ??0InitialStage@@QAE@PAVGoldMinerEngine@@@Z 00414840 f   InitialStage.obj
 0001:00013940       ??1InitialStage@@QAE@XZ    00414940 f   InitialStage.obj
 0001:000139f0       ?SetBackground@InitialStage@@UAEXXZ 004149f0 f   InitialStage.obj
 0001:00013af0       _SDL_main                  00414af0 f   mainfunction.obj
 0001:00013c10       ??$GetAngle@H@@YANHHHH@Z   00414c10 f i BaseEngine.obj
 0001:00013cc0       ??$GetAngle@N@@YANNNNN@Z   00414cc0 f i BaseEngine.obj
 0001:00013d80       ??$Swap@H@@YAXAAH0@Z       00414d80 f i BaseEngine.obj
 0001:00013dc0       ??$Swap@N@@YAXAAN0@Z       00414dc0 f i BaseEngine.obj
 0001:00013e10       ??$_Allocate@PAVDisplayableObject@@@std@@YAPAPAVDisplayableObject@@IPAPAV1@@Z 00414e10 f i BaseEngine.obj
 0001:00013e70       ??$_Destroy_range@U?$_Wrap_alloc@V?$allocator@PAVDisplayableObject@@@std@@@std@@@std@@YAXPAPAVDisplayableObject@@0AAU?$_Wrap_alloc@V?$allocator@PAVDisplayableObject@@@std@@@0@@Z 00414e70 f i BaseEngine.obj
 0001:00013ec0       ??$_Destroy_range@U?$_Wrap_alloc@V?$allocator@PAVDisplayableObject@@@std@@@std@@@std@@YAXPAPAVDisplayableObject@@0AAU?$_Wrap_alloc@V?$allocator@PAVDisplayableObject@@@std@@@0@U_Scalar_ptr_iterator_tag@0@@Z 00414ec0 f i BaseEngine.obj
 0001:00013ee0       ??$_Fill_n@PAPAVDisplayableObject@@IPAV1@@std@@YAPAPAVDisplayableObject@@PAPAV1@IABQAV1@@Z 00414ee0 f i BaseEngine.obj
 0001:00013f30       ??$_Ptr_cat@PAVDisplayableObject@@PAV1@@std@@YA?AU_Scalar_ptr_iterator_tag@0@PAPAVDisplayableObject@@0@Z 00414f30 f i BaseEngine.obj
 0001:00013f50       ??$_Uninit_def_fill_n@PAVDisplayableObject@@IPAV1@@std@@YAXPAPAVDisplayableObject@@IAAU?$_Wrap_alloc@V?$allocator@PAVDisplayableObject@@@std@@@0@0U_Scalar_ptr_iterator_tag@0@@Z 00414f50 f i BaseEngine.obj
 0001:00013f90       ??$_Uninitialized_default_fill_n@PAPAVDisplayableObject@@IU?$_Wrap_alloc@V?$allocator@PAVDisplayableObject@@@std@@@std@@@std@@YAXPAPAVDisplayableObject@@IAAU?$_Wrap_alloc@V?$allocator@PAVDisplayableObject@@@std@@@0@@Z 00414f90 f i BaseEngine.obj
 0001:00013ff0       ??$_Val_type@PAPAVDisplayableObject@@@std@@YAPAPAVDisplayableObject@@PAPAV1@@Z 00414ff0 f i BaseEngine.obj
 0001:00014010       ??0?$_Vector_alloc@$0A@U?$_Vec_base_types@PAVDisplayableObject@@V?$allocator@PAVDisplayableObject@@@std@@@std@@@std@@QAE@ABV?$allocator@PAVDisplayableObject@@@1@@Z 00415010 f i BaseEngine.obj
 0001:00014040       ??0?$_Vector_val@U?$_Simple_types@PAVDisplayableObject@@@std@@@std@@QAE@XZ 00415040 f i BaseEngine.obj
 0001:00014080       ??0?$_Wrap_alloc@V?$allocator@PAVDisplayableObject@@@std@@@std@@QAE@XZ 00415080 f i BaseEngine.obj
 0001:000140b0       ??0?$allocator@PAVDisplayableObject@@@std@@QAE@XZ 004150b0 f i BaseEngine.obj
 0001:000140d0       ??0?$vector@PAVDisplayableObject@@V?$allocator@PAVDisplayableObject@@@std@@@std@@QAE@I@Z 004150d0 f i BaseEngine.obj
 0001:000141e0       ??0BaseEngine@@QAE@H@Z     004151e0 f   BaseEngine.obj
 0001:000142f0       ??1?$vector@PAVDisplayableObject@@V?$allocator@PAVDisplayableObject@@@std@@@std@@QAE@XZ 004152f0 f i BaseEngine.obj
 0001:00014320       ??1BaseEngine@@UAE@XZ      00415320 f   BaseEngine.obj
 0001:000143a0       ??A?$vector@PAVDisplayableObject@@V?$allocator@PAVDisplayableObject@@@std@@@std@@QAEAAPAVDisplayableObject@@I@Z 004153a0 f i BaseEngine.obj
 0001:000143d0       ??_G?$vector@PAVDisplayableObject@@V?$allocator@PAVDisplayableObject@@@std@@@std@@QAEPAXI@Z 004153d0 f i BaseEngine.obj
 0001:00014420       ??_EBaseEngine@@UAEPAXI@Z  00415420 f i BaseEngine.obj
 0001:00014420       ??_GBaseEngine@@UAEPAXI@Z  00415420 f i BaseEngine.obj
 0001:00014470       ?CleanUp@BaseEngine@@UAEXXZ 00415470 f   BaseEngine.obj
 0001:00014490       ?CopyAllBackgroundBuffer@BaseEngine@@QAEXXZ 00415490 f   BaseEngine.obj
 0001:000144f0       ?CopyBackgroundPixels@BaseEngine@@QAEXHHHH@Z 004154f0 f   BaseEngine.obj
 0001:00014600       ?CreateObjectArray@BaseEngine@@QAEXH@Z 00415600 f   BaseEngine.obj
 0001:000146c0       ?Deinitialise@BaseEngine@@QAEXXZ 004156c0 f   BaseEngine.obj
 0001:00014710       ?DestroyOldObjects@BaseEngine@@UAEXXZ 00415710 f   BaseEngine.obj
 0001:00014820       ?DrawHollowOval@BaseEngine@@QAEXHHHHHHHHIPAUSDL_Surface@@@Z 00415820 f   BaseEngine.obj
 0001:00014b20       ?DrawLine@BaseEngine@@QAEXNNNNIPAUSDL_Surface@@@Z 00415b20 f   BaseEngine.obj
 0001:00014cd0       ?DrawObjects@BaseEngine@@UAEXXZ 00415cd0 f   BaseEngine.obj
 0001:00014d80       ?DrawOval@BaseEngine@@QAEXHHHHIPAUSDL_Surface@@@Z 00415d80 f   BaseEngine.obj
 0001:00014f50       ?DrawPolygon@BaseEngine@@QAEXHPAN0IPAUSDL_Surface@@@Z 00415f50 f   BaseEngine.obj
 0001:00015950       ?DrawRectangle@BaseEngine@@QAEXHHHHIPAUSDL_Surface@@@Z 00416950 f   BaseEngine.obj
 0001:00015a20       ?DrawShortenedArrow@BaseEngine@@QAEXHHHHHHIHHPAUSDL_Surface@@@Z 00416a20 f   BaseEngine.obj
 0001:00016090       ?DrawShortenedLine@BaseEngine@@QAEXHHHHHHIHPAUSDL_Surface@@@Z 00417090 f   BaseEngine.obj
 0001:000165a0       ?DrawString@BaseEngine@@QAEXHHPBDIPAVFont@@PAUSDL_Surface@@@Z 004175a0 f   BaseEngine.obj
 0001:00016720       ?DrawStrings@BaseEngine@@UAEXXZ 00417720 f   BaseEngine.obj
 0001:00016740       ?DrawStringsOnTop@BaseEngine@@UAEXXZ 00417740 f   BaseEngine.obj
 0001:00016760       ?DrawStringsUnderneath@BaseEngine@@UAEXXZ 00417760 f   BaseEngine.obj
 0001:00016780       ?DrawThickLine@BaseEngine@@QAEXNNNNIHPAUSDL_Surface@@@Z 00417780 f   BaseEngine.obj
 0001:00016cb0       ?DrawTriangle@BaseEngine@@QAEXNNNNNNIPAUSDL_Surface@@@Z 00417cb0 f   BaseEngine.obj
 0001:00016fd0       ?DrawVerticalSidedRegion@BaseEngine@@QAEXNNNNNNIPAUSDL_Surface@@@Z 00417fd0 f   BaseEngine.obj
 0001:00017360       ?FillBackground@BaseEngine@@UAEXI@Z 00418360 f   BaseEngine.obj
 0001:000173e0       ?GameAction@BaseEngine@@UAEXXZ 004183e0 f   BaseEngine.obj
 0001:00017440       ?GameInit@BaseEngine@@UAEHXZ 00418440 f   BaseEngine.obj
 0001:00017480       ?GameRender@BaseEngine@@UAEXXZ 00418480 f   BaseEngine.obj
 0001:00017710       ?GetColour@BaseEngine@@QBEIH@Z 00418710 f   BaseEngine.obj
 0001:000179e0       ?GetDisplayableObject@BaseEngine@@QAEPAVDisplayableObject@@H@Z 004189e0 f   BaseEngine.obj
 0001:00017a40       ?GetFont@Font@@QAEPAU_TTF_Font@@XZ 00418a40 f i BaseEngine.obj
 0001:00017a60       ?GetIntsPerScreenRow@BaseEngine@@IBEHPAUSDL_Surface@@@Z 00418a60 f i BaseEngine.obj
 0001:00017a90       ?Initialise@BaseEngine@@QAEHPBDHH0H@Z 00418a90 f   BaseEngine.obj
 0001:00017cd0       ?InitialiseObjects@BaseEngine@@UAEHXZ 00418cd0 f   BaseEngine.obj
 0001:00017d00       ?IsKeyPressed@BaseEngine@@QBE_NH@Z 00418d00 f   BaseEngine.obj
 0001:00017d40       ?IsTimeToActWithSleep@BaseEngine@@QBE_NXZ 00418d40 f i BaseEngine.obj
 0001:00017dc0       ?KeyDown@BaseEngine@@UAEXH@Z 00418dc0 f   BaseEngine.obj
 0001:00017de0       ?KeyUp@BaseEngine@@UAEXH@Z 00418de0 f   BaseEngine.obj
 0001:00017e00       ?MainLoop@BaseEngine@@QAEHXZ 00418e00 f   BaseEngine.obj
 0001:00018050       ?MouseDown@BaseEngine@@UAEXHHH@Z 00419050 f   BaseEngine.obj
 0001:00018070       ?MouseMoved@BaseEngine@@UAEXHH@Z 00419070 f   BaseEngine.obj
 0001:00018090       ?MouseUp@BaseEngine@@UAEXHHH@Z 00419090 f   BaseEngine.obj
 0001:000180b0       ?NotifyAllObjects@BaseEngine@@QAEXH@Z 004190b0 f   BaseEngine.obj
 0001:00018140       ?NotifyAllObjectsGetCountNonZero@BaseEngine@@QAEHH@Z 00419140 f   BaseEngine.obj
 0001:000181f0       ?NotifyAllObjectsGetMax@BaseEngine@@QAEHH@Z 004191f0 f   BaseEngine.obj
 0001:000182a0       ?NotifyAllObjectsGetMin@BaseEngine@@QAEHH@Z 004192a0 f   BaseEngine.obj
 0001:00018350       ?NotifyAllObjectsGetSum@BaseEngine@@QAEHH@Z 00419350 f   BaseEngine.obj
 0001:000183f0       ?SafeSetPixel@BaseEngine@@QAEXHHIPAUSDL_Surface@@@Z 004193f0 f i BaseEngine.obj
 0001:00018480       ?SetupBackgroundBuffer@BaseEngine@@UAEXXZ 00419480 f   BaseEngine.obj
 0001:000184b0       ?StoreObjectInArray@BaseEngine@@QAEXHPAVDisplayableObject@@@Z 004194b0 f   BaseEngine.obj
 0001:000184f0       ?SymbolToKeycode@BaseEngine@@SAHH@Z 004194f0 f i BaseEngine.obj
 0001:00018870       ?UnDrawStrings@BaseEngine@@UAEXXZ 00419870 f   BaseEngine.obj
 0001:00018890       ?UndrawObjects@BaseEngine@@UAEXXZ 00419890 f   BaseEngine.obj
 0001:00018930       ?UpdateAllObjects@BaseEngine@@UAEXH@Z 00419930 f   BaseEngine.obj
 0001:000189f0       ?_Buy@?$vector@PAVDisplayableObject@@V?$allocator@PAVDisplayableObject@@@std@@@std@@IAE_NI@Z 004199f0 f i BaseEngine.obj
 0001:00018ab0       ?_Destroy@?$vector@PAVDisplayableObject@@V?$allocator@PAVDisplayableObject@@@std@@@std@@IAEXPAPAVDisplayableObject@@0@Z 00419ab0 f i BaseEngine.obj
 0001:00018b00       ?_Getal@?$_Vector_alloc@$0A@U?$_Vec_base_types@PAVDisplayableObject@@V?$allocator@PAVDisplayableObject@@@std@@@std@@@std@@QBE?AU?$_Wrap_alloc@V?$allocator@PAVDisplayableObject@@@std@@@2@XZ 00419b00 f i BaseEngine.obj
 0001:00018b30       ?_Tidy@?$vector@PAVDisplayableObject@@V?$allocator@PAVDisplayableObject@@@std@@@std@@IAEXXZ 00419b30 f i BaseEngine.obj
 0001:00018bd0       ?_Xlen@?$vector@PAVDisplayableObject@@V?$allocator@PAVDisplayableObject@@@std@@@std@@IBEXXZ 00419bd0 f i BaseEngine.obj
 0001:00018c00       ?allocate@?$_Wrap_alloc@V?$allocator@PAVDisplayableObject@@@std@@@std@@QAEPAPAVDisplayableObject@@I@Z 00419c00 f i BaseEngine.obj
 0001:00018c30       ?allocate@?$allocator@PAVDisplayableObject@@@std@@QAEPAPAVDisplayableObject@@I@Z 00419c30 f i BaseEngine.obj
 0001:00018c60       ?deallocate@?$_Wrap_alloc@V?$allocator@PAVDisplayableObject@@@std@@@std@@QAEXPAPAVDisplayableObject@@I@Z 00419c60 f i BaseEngine.obj
 0001:00018c90       ?deallocate@?$allocator@PAVDisplayableObject@@@std@@QAEXPAPAVDisplayableObject@@I@Z 00419c90 f i BaseEngine.obj
 0001:00018cc0       ?max_size@?$_Wrap_alloc@V?$allocator@PAVDisplayableObject@@@std@@@std@@QBEIXZ 00419cc0 f i BaseEngine.obj
 0001:00018cf0       ?max_size@?$allocator@PAVDisplayableObject@@@std@@QBEIXZ 00419cf0 f i BaseEngine.obj
 0001:00018d10       ?max_size@?$allocator_traits@V?$allocator@PAVDisplayableObject@@@std@@@std@@SAIABV?$allocator@PAVDisplayableObject@@@2@@Z 00419d10 f i BaseEngine.obj
 0001:00018d30       ?max_size@?$vector@PAVDisplayableObject@@V?$allocator@PAVDisplayableObject@@@std@@@std@@QBEIXZ 00419d30 f i BaseEngine.obj
 0001:00018d60       ?size@?$vector@PAVDisplayableObject@@V?$allocator@PAVDisplayableObject@@@std@@@std@@QBEIXZ 00419d60 f i BaseEngine.obj
 0001:00018d90       ??0DisplayableObject@@QAE@PAVBaseEngine@@@Z 00419d90 f   DisplayableObject.obj
 0001:00018e30       ??1DisplayableObject@@UAE@XZ 00419e30 f   DisplayableObject.obj
 0001:00018e60       ??_EDisplayableObject@@UAEPAXI@Z 00419e60 f i DisplayableObject.obj
 0001:00018e60       ??_GDisplayableObject@@UAEPAXI@Z 00419e60 f i DisplayableObject.obj
 0001:00018eb0       ?DoUpdate@DisplayableObject@@UAEXH@Z 00419eb0 f   DisplayableObject.obj
 0001:00018ed0       ?Draw@DisplayableObject@@UAEXXZ 00419ed0 f   DisplayableObject.obj
 0001:00018f90       ?RedrawBackground@DisplayableObject@@UAEXXZ 00419f90 f   DisplayableObject.obj
 0001:00018ff0       ?SafeSetScreenPixel@BaseEngine@@QAEXHHI@Z 00419ff0 f i DisplayableObject.obj
 0001:00019030       ?StoreLastScreenPositionForUndraw@DisplayableObject@@QAEXXZ 0041a030 f   DisplayableObject.obj
 0001:00019070       ??$GrowArray@PAVFont@@@@YAPAPAVFont@@PAPAV0@AAHH@Z 0041a070 f i FontManager.obj
 0001:00019130       ??0Font@@QAE@PBDH@Z        0041a130 f i FontManager.obj
 0001:000191b0       ??0FontManager@@QAE@XZ     0041a1b0 f   FontManager.obj
 0001:00019240       ??1Font@@QAE@XZ            0041a240 f i FontManager.obj
 0001:000192c0       ??1FontManager@@QAE@XZ     0041a2c0 f   FontManager.obj
 0001:00019360       ??_GFont@@QAEPAXI@Z        0041a360 f i FontManager.obj
 0001:000193b0       ?GetFont@FontManager@@QAEPAVFont@@PBDH@Z 0041a3b0 f   FontManager.obj
 0001:000195d0       ?GetName@Font@@QAEPBDXZ    0041a5d0 f i FontManager.obj
 0001:000195f0       ?GetSize@Font@@QAEHXZ      0041a5f0 f i FontManager.obj
 0001:00019610       ?LoadFonts@FontManager@@QAEXXZ 0041a610 f   FontManager.obj
 0001:000196a0       ?DeinitImage@@YAXXZ        0041a6a0 f   JPGImage.obj
 0001:000196c0       ?FlexibleRenderImageWithMask@ImageData@@QBEXPAUSDL_Surface@@HHHHHHHHHHHHHH@Z 0041a6c0 f   JPGImage.obj
 0001:00019cd0       ?GetXForRotationAndCrop@@YAHHHHHHH@Z 0041acd0 f i JPGImage.obj
 0001:00019d50       ?GetYForRotationAndCrop@@YAHHHHHHH@Z 0041ad50 f i JPGImage.obj
 0001:00019dd0       ?InitImage@@YAXXZ          0041add0 f   JPGImage.obj
 0001:00019df0       ?LoadImage@ImageData@@QAE_NPBD@Z 0041adf0 f   JPGImage.obj
 0001:0001a150       ?RenderImage@ImageData@@QBEXPAUSDL_Surface@@HHHHHH@Z 0041b150 f   JPGImage.obj
 0001:0001a2d0       ?RenderImageWithMask@ImageData@@QBEXPAUSDL_Surface@@HHHHHH@Z 0041b2d0 f   JPGImage.obj
 0001:0001a4a0       ?ResizeFrom@ImageData@@QAEXPBV1@HH_N@Z 0041b4a0 f   JPGImage.obj
 0001:0001a9a0       ?ShrinkFrom@ImageData@@QAEXPBV1@H@Z 0041b9a0 f   JPGImage.obj
 0001:0001ac10       ??0PigObject@@QAE@PAVGoldMinerEngine@@HHHHN@Z 0041bc10 f   PigObject.obj
 0001:0001aee0       ??1PigObject@@UAE@XZ       0041bee0 f   PigObject.obj
 0001:0001aff0       ??_GPigObject@@UAEPAXI@Z   0041bff0 f i PigObject.obj
 0001:0001aff0       ??_EPigObject@@UAEPAXI@Z   0041bff0 f i PigObject.obj
 0001:0001b040       ?DoUpdate@PigObject@@UAEXH@Z 0041c040 f   PigObject.obj
 0001:0001b260       ?Draw@PigObject@@UAEXXZ    0041c260 f   PigObject.obj
 0001:0001b7f0       ?isHooked@PigObject@@QAEHXZ 0041c7f0 f   PigObject.obj
 0001:0001bcf0       ??0SimpleShape@@QAE@PAVSimpleDemo@@@Z 0041ccf0 f i SimpleDemo.obj
 0001:0001be40       ??1SimpleShape@@UAE@XZ     0041ce40 f i SimpleDemo.obj
 0001:0001be70       ??_ESimpleShape@@UAEPAXI@Z 0041ce70 f i SimpleDemo.obj
 0001:0001be70       ??_GSimpleShape@@UAEPAXI@Z 0041ce70 f i SimpleDemo.obj
 0001:0001bec0       ?DoUpdate@SimpleShape@@UAEXH@Z 0041cec0 f i SimpleDemo.obj
 0001:0001c340       ?Draw@SimpleShape@@UAEXXZ  0041d340 f i SimpleDemo.obj
 0001:0001c3f0       ?DrawScreenRectangle@BaseEngine@@QAEXHHHHI@Z 0041d3f0 f i SimpleDemo.obj
 0001:0001c440       ?DrawStringsOnTop@SimpleDemo@@UAEXXZ 0041d440 f   SimpleDemo.obj
 0001:0001c4f0       ?DrawStringsUnderneath@SimpleDemo@@UAEXXZ 0041d4f0 f   SimpleDemo.obj
 0001:0001c590       ?GameAction@SimpleDemo@@UAEXXZ 0041d590 f   SimpleDemo.obj
 0001:0001c5f0       ?GetScreenHeight@BaseEngine@@QBEHXZ 0041d5f0 f i SimpleDemo.obj
 0001:0001c610       ?InitialiseObjects@SimpleDemo@@UAEHXZ 0041d610 f   SimpleDemo.obj
 0001:0001c6f0       ?KeyDown@SimpleDemo@@UAEXH@Z 0041d6f0 f   SimpleDemo.obj
 0001:0001c730       ?MouseDown@SimpleDemo@@UAEXHHH@Z 0041d730 f   SimpleDemo.obj
 0001:0001c770       ?SetBackgroundPixel@BaseEngine@@QAEXHHI@Z 0041d770 f i SimpleDemo.obj
 0001:0001c850       ?SetPixel@BaseEngine@@QAEXHHIPAUSDL_Surface@@@Z 0041d850 f i SimpleDemo.obj
 0001:0001c940       ?SetupBackgroundBuffer@SimpleDemo@@UAEXXZ 0041d940 f   SimpleDemo.obj
 0001:0001cad0       ?UnDrawStrings@SimpleDemo@@UAEXXZ 0041dad0 f   SimpleDemo.obj
 0001:0001cb10       ??0StageClass@@QAE@PAVGoldMinerEngine@@@Z 0041db10 f   StageClass.obj
 0001:0001cb50       ??1StageClass@@QAE@XZ      0041db50 f   StageClass.obj
 0001:0001cb80       ?SetBackground@StageClass@@UAEXXZ 0041db80 f   StageClass.obj
 0001:0001cba0       ??0StaticObject@@QAE@PAVGoldMinerEngine@@HHHH@Z 0041dba0 f   StaticObject.obj
 0001:0001cc00       ??1StaticObject@@UAE@XZ    0041dc00 f   StaticObject.obj
 0001:0001cc30       ??_GStaticObject@@UAEPAXI@Z 0041dc30 f i StaticObject.obj
 0001:0001cc30       ??_EStaticObject@@UAEPAXI@Z 0041dc30 f i StaticObject.obj
 0001:0001ccd0       ??0StoneObject@@QAE@PAVGoldMinerEngine@@HHHH@Z 0041dcd0 f   StoneObject.obj
 0001:0001ce70       ??1StoneObject@@UAE@XZ     0041de70 f   StoneObject.obj
 0001:0001cef0       ??_GStoneObject@@UAEPAXI@Z 0041def0 f i StoneObject.obj
 0001:0001cef0       ??_EStoneObject@@UAEPAXI@Z 0041def0 f i StoneObject.obj
 0001:0001cf40       ?DoUpdate@StoneObject@@UAEXH@Z 0041df40 f   StoneObject.obj
 0001:0001cf70       ?Draw@StoneObject@@UAEXXZ  0041df70 f   StoneObject.obj
 0001:0001d060       ?DrawAllTilesAt@TileManager@@QBEXPAVBaseEngine@@PAUSDL_Surface@@HHHHHH@Z 0041e060 f   TileManager.obj
 0001:0001d120       ?DrawTileAt@TileManager@@UBEXPAVBaseEngine@@PAUSDL_Surface@@HHHH@Z 0041e120 f   TileManager.obj
 0001:0001d1c0       ?UpdateTileAt@TileManager@@QAEXPAVBaseEngine@@HHHHH@Z 0041e1c0 f   TileManager.obj
 0001:0001d260       ??0BouncingBall1@@QAE@PAVBouncingBallMain@@HHHHPADHHPAVTileManager@@@Z 0041e260 f   BouncingBall.obj
 0001:0001d320       ??0BouncingBall2@@QAE@PAVBouncingBallMain@@HHHHPADHH@Z 0041e320 f   BouncingBall.obj
 0001:0001d3d0       ??0BouncingBall@@QAE@PAVBouncingBallMain@@HHHHPADHH@Z 0041e3d0 f   BouncingBall.obj
 0001:0001d540       ??0MovementPosition@@QAE@XZ 0041e540 f i BouncingBall.obj
 0001:0001d5c0       ??1BouncingBall1@@UAE@XZ   0041e5c0 f i BouncingBall.obj
 0001:0001d5f0       ??1BouncingBall2@@UAE@XZ   0041e5f0 f i BouncingBall.obj
 0001:0001d620       ??1BouncingBall@@UAE@XZ    0041e620 f   BouncingBall.obj
 0001:0001d650       ??_EBouncingBall1@@UAEPAXI@Z 0041e650 f i BouncingBall.obj
 0001:0001d650       ??_GBouncingBall1@@UAEPAXI@Z 0041e650 f i BouncingBall.obj
 0001:0001d6a0       ??_GBouncingBall2@@UAEPAXI@Z 0041e6a0 f i BouncingBall.obj
 0001:0001d6a0       ??_EBouncingBall2@@UAEPAXI@Z 0041e6a0 f i BouncingBall.obj
 0001:0001d6f0       ??_GBouncingBall@@UAEPAXI@Z 0041e6f0 f i BouncingBall.obj
 0001:0001d6f0       ??_EBouncingBall@@UAEPAXI@Z 0041e6f0 f i BouncingBall.obj
 0001:0001d740       ?Calculate@MovementPosition@@QAEXH@Z 0041e740 f i BouncingBall.obj
 0001:0001d840       ?DoUpdate@BouncingBall1@@UAEXH@Z 0041e840 f   BouncingBall.obj
 0001:0001d9b0       ?DoUpdate@BouncingBall2@@UAEXH@Z 0041e9b0 f   BouncingBall.obj
 0001:0001de00       ?DoUpdate@BouncingBall@@UAEXH@Z 0041ee00 f   BouncingBall.obj
 0001:0001de30       ?Draw@BouncingBall@@UAEXXZ 0041ee30 f   BouncingBall.obj
 0001:0001e170       ?GetTileXForPositionOnScreen@TileManager@@QBEHH@Z 0041f170 f i BouncingBall.obj
 0001:0001e1b0       ?GetTileYForPositionOnScreen@TileManager@@QBEHH@Z 0041f1b0 f i BouncingBall.obj
 0001:0001e1f0       ?GetX@MovementPosition@@QBEHXZ 0041f1f0 f i BouncingBall.obj
 0001:0001e210       ?GetY@MovementPosition@@QBEHXZ 0041f210 f i BouncingBall.obj
 0001:0001e230       ?HasMovementFinished@MovementPosition@@QBE_NH@Z 0041f230 f i BouncingBall.obj
 0001:0001e270       ?IsValidTilePosition@TileManager@@QBE_NHH@Z 0041f270 f i BouncingBall.obj
 0001:0001e300       ?Reverse@MovementPosition@@QAEXXZ 0041f300 f i BouncingBall.obj
 0001:0001e380       ?SetMovement@BouncingBall1@@QAEXHHHHHHH@Z 0041f380 f   BouncingBall.obj
 0001:0001e410       ?SetPosition@BouncingBall2@@QAEXNN@Z 0041f410 f   BouncingBall.obj
 0001:0001e450       ?SetSpeed@BouncingBall2@@QAEXNN@Z 0041f450 f   BouncingBall.obj
 0001:0001e490       ?Setup@MovementPosition@@QAEXHHHHHH@Z 0041f490 f i BouncingBall.obj
 0001:0001e510       ?DrawBackgroundLine@BaseEngine@@QAEXHHHHI@Z 0041f510 f i BouncingBallMain.obj
 0001:0001e590       ?DrawBackgroundPolygon@BaseEngine@@QAEXNNNNNNNNNNNNNNI@Z 0041f590 f i BouncingBallMain.obj
 0001:0001e6a0       ?DrawBackgroundPolygon@BaseEngine@@QAEXNNNNNNNNNNNNNNNNI@Z 0041f6a0 f i BouncingBallMain.obj
 0001:0001e7e0       ?DrawBackgroundTriangle@BaseEngine@@QAEXHHHHHHI@Z 0041f7e0 f i BouncingBallMain.obj
 0001:0001e880       ?DrawBackgroundVerticalSidedRegion@BaseEngine@@QAEXNNNNNNI@Z 0041f880 f i BouncingBallMain.obj
 0001:0001e920       ?DrawStrings@BouncingBallMain@@UAEXXZ 0041f920 f   BouncingBallMain.obj
 0001:0001e980       ?InitialiseObjects@BouncingBallMain@@UAEHXZ 0041f980 f   BouncingBallMain.obj
 0001:0001ecc0       ?KeyDown@BouncingBallMain@@UAEXH@Z 0041fcc0 f   BouncingBallMain.obj
 0001:0001ed00       ?MouseDown@BouncingBallMain@@UAEXHHH@Z 0041fd00 f   BouncingBallMain.obj
 0001:0001ed50       ?SetupBackgroundBuffer@BouncingBallMain@@UAEXXZ 0041fd50 f   BouncingBallMain.obj
 0001:0001f640       ??0Demo1Main@@QAE@XZ       00420640 f   Demo1Main.obj
 0001:0001f680       ??1Demo1Main@@UAE@XZ       00420680 f   Demo1Main.obj
 0001:0001f6b0       ??_GDemo1Main@@UAEPAXI@Z   004206b0 f i Demo1Main.obj
 0001:0001f6b0       ??_EDemo1Main@@UAEPAXI@Z   004206b0 f i Demo1Main.obj
 0001:0001f700       ?SetupBackgroundBuffer@Demo1Main@@UAEXXZ 00420700 f   Demo1Main.obj
 0001:0001f730       ??0Demo2Main@@QAE@XZ       00420730 f   Demo2Main.obj
 0001:0001f7c0       ??1Demo2Main@@UAE@XZ       004207c0 f   Demo2Main.obj
 0001:0001f840       ??_GDemo2Main@@UAEPAXI@Z   00420840 f i Demo2Main.obj
 0001:0001f840       ??_EDemo2Main@@UAEPAXI@Z   00420840 f i Demo2Main.obj
 0001:0001f890       ?DrawStrings@Demo2Main@@UAEXXZ 00420890 f   Demo2Main.obj
 0001:0001f8f0       ?GameAction@Demo2Main@@UAEXXZ 004208f0 f   Demo2Main.obj
 0001:0001f950       ?InitialiseObjects@Demo2Main@@UAEHXZ 00420950 f   Demo2Main.obj
 0001:0001fa50       ?KeyDown@Demo2Main@@UAEXH@Z 00420a50 f   Demo2Main.obj
 0001:0001fa90       ?MouseDown@Demo2Main@@UAEXHHH@Z 00420a90 f   Demo2Main.obj
 0001:0001fab0       ?SetupBackgroundBuffer@Demo2Main@@UAEXXZ 00420ab0 f   Demo2Main.obj
 0001:0001fba0       ??0Demo2Object@@QAE@PAVDemo2Main@@@Z 00420ba0 f   Demo2Object.obj
 0001:0001fd00       ??1Demo2Object@@UAE@XZ     00420d00 f   Demo2Object.obj
 0001:0001fd30       ??_EDemo2Object@@UAEPAXI@Z 00420d30 f i Demo2Object.obj
 0001:0001fd30       ??_GDemo2Object@@UAEPAXI@Z 00420d30 f i Demo2Object.obj
 0001:0001fd80       ?DoUpdate@Demo2Object@@UAEXH@Z 00420d80 f   Demo2Object.obj
 0001:0001fe90       ?Draw@Demo2Object@@UAEXXZ  00420e90 f   Demo2Object.obj
 0001:0001ff10       ?DrawScreenOval@BaseEngine@@QAEXHHHHI@Z 00420f10 f i Demo2Object.obj
 0001:0001ff60       ??0Demo2TileManager@@QAE@XZ 00420f60 f   Demo2TileManager.obj
 0001:0001ffa0       ??1Demo2TileManager@@QAE@XZ 00420fa0 f   Demo2TileManager.obj
 0001:0001ffd0       ?DrawTileAt@Demo2TileManager@@UAEXPAVBaseEngine@@PAUSDL_Surface@@HHHH@Z 00420fd0 f   Demo2TileManager.obj
 0001:00020050       ??0Demo3Main@@QAE@XZ       00421050 f   Demo3Main.obj
 0001:000200e0       ??1Demo3Main@@UAE@XZ       004210e0 f   Demo3Main.obj
 0001:00020160       ??_GDemo3Main@@UAEPAXI@Z   00421160 f i Demo3Main.obj
 0001:00020160       ??_EDemo3Main@@UAEPAXI@Z   00421160 f i Demo3Main.obj
 0001:000201b0       ?DrawStrings@Demo3Main@@UAEXXZ 004211b0 f   Demo3Main.obj
 0001:00020210       ?GameAction@Demo3Main@@UAEXXZ 00421210 f   Demo3Main.obj
 0001:00020270       ?InitialiseObjects@Demo3Main@@UAEHXZ 00421270 f   Demo3Main.obj
 0001:000204f0       ?KeyDown@Demo3Main@@UAEXH@Z 004214f0 f   Demo3Main.obj
 0001:00020530       ?MouseDown@Demo3Main@@UAEXHHH@Z 00421530 f   Demo3Main.obj
 0001:00020550       ?SetupBackgroundBuffer@Demo3Main@@UAEXXZ 00421550 f   Demo3Main.obj
 0001:00020740       ??0Demo3Object@@QAE@PAVDemo3Main@@HH@Z 00421740 f   Demo3Object.obj
 0001:00020880       ??1Demo3Object@@UAE@XZ     00421880 f   Demo3Object.obj
 0001:000208b0       ??_EDemo3Object@@UAEPAXI@Z 004218b0 f i Demo3Object.obj
 0001:000208b0       ??_GDemo3Object@@UAEPAXI@Z 004218b0 f i Demo3Object.obj
 0001:00020900       ?DoUpdate@Demo3Object@@UAEXH@Z 00421900 f   Demo3Object.obj
 0001:00020b90       ?Draw@Demo3Object@@UAEXXZ  00421b90 f   Demo3Object.obj
 0001:00020c20       ?GetTileManager@Demo3Main@@QAEAAVDemo3TileManager@@XZ 00421c20 f i Demo3Object.obj
 0001:00020c40       ?GetXDiffForDirection@Demo3Object@@QAEHH@Z 00421c40 f i Demo3Object.obj
 0001:00020cc0       ?GetYDiffForDirection@Demo3Object@@QAEHH@Z 00421cc0 f i Demo3Object.obj
 0001:00020d40       ??0Demo3ObjectFinished@@QAE@PAVDemo3Main@@HH@Z 00421d40 f   Demo3ObjectFinished.obj
 0001:00020e80       ??1Demo3ObjectFinished@@UAE@XZ 00421e80 f   Demo3ObjectFinished.obj
 0001:00020eb0       ??_GDemo3ObjectFinished@@UAEPAXI@Z 00421eb0 f i Demo3ObjectFinished.obj
 0001:00020eb0       ??_EDemo3ObjectFinished@@UAEPAXI@Z 00421eb0 f i Demo3ObjectFinished.obj
 0001:00020f00       ?DoUpdate@Demo3ObjectFinished@@UAEXH@Z 00421f00 f   Demo3ObjectFinished.obj
 0001:000212d0       ?Draw@Demo3ObjectFinished@@UAEXXZ 004222d0 f   Demo3ObjectFinished.obj
 0001:000213b0       ?GetXDiffForDirection@Demo3ObjectFinished@@QAEHH@Z 004223b0 f i Demo3ObjectFinished.obj
 0001:00021430       ?GetYDiffForDirection@Demo3ObjectFinished@@QAEHH@Z 00422430 f i Demo3ObjectFinished.obj
 0001:000214b0       ??0Demo3TileManager@@QAE@XZ 004224b0 f   Demo3TileManager.obj
 0001:000214f0       ??1Demo3TileManager@@QAE@XZ 004224f0 f   Demo3TileManager.obj
 0001:00021520       ?DrawTileAt@Demo3TileManager@@UBEXPAVBaseEngine@@PAUSDL_Surface@@HHHH@Z 00422520 f   Demo3TileManager.obj
 0001:00021710       ??0Demo4Main@@QAE@XZ       00422710 f   Demo4Main.obj
 0001:000217b0       ??1Demo4Main@@UAE@XZ       004227b0 f   Demo4Main.obj
 0001:00021830       ??_EDemo4Main@@UAEPAXI@Z   00422830 f i Demo4Main.obj
 0001:00021830       ??_GDemo4Main@@UAEPAXI@Z   00422830 f i Demo4Main.obj
 0001:00021880       ?DrawObjects@Demo4Main@@UAEXXZ 00422880 f   Demo4Main.obj
 0001:000218b0       ?DrawStrings@Demo4Main@@UAEXXZ 004228b0 f   Demo4Main.obj
 0001:000219c0       ?GameAction@Demo4Main@@UAEXXZ 004229c0 f   Demo4Main.obj
 0001:00021a40       ?InitialiseObjects@Demo4Main@@UAEHXZ 00422a40 f   Demo4Main.obj
 0001:00021cc0       ?KeyDown@Demo4Main@@UAEXH@Z 00422cc0 f   Demo4Main.obj
 0001:00021e00       ?MouseDown@Demo4Main@@UAEXHHH@Z 00422e00 f   Demo4Main.obj
 0001:00021e20       ?SetupBackgroundBuffer@Demo4Main@@UAEXXZ 00422e20 f   Demo4Main.obj
 0001:000220a0       ?UndrawObjects@Demo4Main@@UAEXXZ 004230a0 f   Demo4Main.obj
 0001:000220d0       ??0Demo4Object@@QAE@PAVDemo4Main@@HH@Z 004230d0 f   Demo4Object.obj
 0001:00022210       ??1Demo4Object@@UAE@XZ     00423210 f   Demo4Object.obj
 0001:00022240       ??_EDemo4Object@@UAEPAXI@Z 00423240 f i Demo4Object.obj
 0001:00022240       ??_GDemo4Object@@UAEPAXI@Z 00423240 f i Demo4Object.obj
 0001:00022290       ?DoUpdate@Demo4Object@@UAEXH@Z 00423290 f   Demo4Object.obj
 0001:00022860       ?Draw@Demo4Object@@UAEXXZ  00423860 f   Demo4Object.obj
 0001:00022950       ?GetTileManager@Demo4Main@@QAEAAVDemo4TileManager@@XZ 00423950 f i Demo4Object.obj
 0001:00022970       ?GetXCentre@DisplayableObject@@QBEHXZ 00423970 f i Demo4Object.obj
 0001:000229b0       ?GetXDiffForDirection@Demo4Object@@QAEHH@Z 004239b0 f i Demo4Object.obj
 0001:00022a30       ?GetYDiffForDirection@Demo4Object@@QAEHH@Z 00423a30 f i Demo4Object.obj
 0001:00022ab0       ??0Demo4TileManager@@QAE@XZ 00423ab0 f   Demo4TileManager.obj
 0001:00022af0       ??1Demo4TileManager@@QAE@XZ 00423af0 f   Demo4TileManager.obj
 0001:00022b20       ?DrawTileAt@Demo4TileManager@@UBEXPAVBaseEngine@@PAUSDL_Surface@@HHHH@Z 00423b20 f   Demo4TileManager.obj
 0001:00022d0c       _SDL_abs                   00423d0c f   SDL2:SDL2.dll
 0001:00022d12       _SDL_cos                   00423d12 f   SDL2:SDL2.dll
 0001:00022d18       _SDL_sin                   00423d18 f   SDL2:SDL2.dll
 0001:00022d1e       _SDL_GetError              00423d1e f   SDL2:SDL2.dll
 0001:00022d24       _SDL_CreateRGBSurface      00423d24 f   SDL2:SDL2.dll
 0001:00022d2a       _SDL_FreeSurface           00423d2a f   SDL2:SDL2.dll
 0001:00022d30       _SDL_LockSurface           00423d30 f   SDL2:SDL2.dll
 0001:00022d36       _SDL_UnlockSurface         00423d36 f   SDL2:SDL2.dll
 0001:00022d3c       _SDL_FillRect              00423d3c f   SDL2:SDL2.dll
 0001:00022d42       _SDL_UpperBlit             00423d42 f   SDL2:SDL2.dll
 0001:00022d48       _SDL_CreateWindow          00423d48 f   SDL2:SDL2.dll
 0001:00022d4e       _SDL_PollEvent             00423d4e f   SDL2:SDL2.dll
 0001:00022d54       _SDL_CreateRenderer        00423d54 f   SDL2:SDL2.dll
 0001:00022d5a       _SDL_CreateTexture         00423d5a f   SDL2:SDL2.dll
 0001:00022d60       _SDL_UpdateTexture         00423d60 f   SDL2:SDL2.dll
 0001:00022d66       _SDL_RenderCopy            00423d66 f   SDL2:SDL2.dll
 0001:00022d6c       _SDL_RenderPresent         00423d6c f   SDL2:SDL2.dll
 0001:00022d72       _SDL_GetTicks              00423d72 f   SDL2:SDL2.dll
 0001:00022d78       _SDL_Delay                 00423d78 f   SDL2:SDL2.dll
 0001:00022d7e       _SDL_Init                  00423d7e f   SDL2:SDL2.dll
 0001:00022d84       _SDL_Quit                  00423d84 f   SDL2:SDL2.dll
 0001:00022d8a       _IMG_Load                  00423d8a f   SDL2_image:SDL2_image.dll
 0001:00022d90       _TTF_Init                  00423d90 f   SDL2_ttf:SDL2_ttf.dll
 0001:00022d96       _TTF_RenderText_Solid      00423d96 f   SDL2_ttf:SDL2_ttf.dll
 0001:00022d9c       _TTF_Quit                  00423d9c f   SDL2_ttf:SDL2_ttf.dll
 0001:00022da2       _TTF_OpenFont              00423da2 f   SDL2_ttf:SDL2_ttf.dll
 0001:00022da8       _TTF_CloseFont             00423da8 f   SDL2_ttf:SDL2_ttf.dll
 0001:00022dae       ?_Xbad_alloc@std@@YAXXZ    00423dae f   msvcprt:MSVCP120.dll
 0001:00022db4       ?_Xlength_error@std@@YAXPBD@Z 00423db4 f   msvcprt:MSVCP120.dll
 0001:00022dba       ?_Xout_of_range@std@@YAXPBD@Z 00423dba f   msvcprt:MSVCP120.dll
 0001:00022dc0       ??0id@locale@std@@QAE@I@Z  00423dc0 f   msvcprt:MSVCP120.dll
 0001:00022dc6       ?_Syserror_map@std@@YAPBDH@Z 00423dc6 f   msvcprt:MSVCP120.dll
 0001:00022dcc       ?_Winerror_map@std@@YAPBDH@Z 00423dcc f   msvcprt:MSVCP120.dll
 0001:00022dd2       ??0_Lockit@std@@QAE@H@Z    00423dd2 f   msvcprt:MSVCP120.dll
 0001:00022dd8       ??1_Lockit@std@@QAE@XZ     00423dd8 f   msvcprt:MSVCP120.dll
 0001:00022dde       ?uncaught_exception@std@@YA_NXZ 00423dde f   msvcprt:MSVCP120.dll
 0001:00022de4       ??_U@YAPAXI@Z              00423de4 f   msvcprt:newaop_s.obj
 0001:00022dee       ?_Swap_all@_Container_base0@std@@QAEXAAU12@@Z 00423dee f   msvcprt:MSVCP120.dll
 0001:00022df4       ?_Xinvalid_argument@std@@YAXPBD@Z 00423df4 f   msvcprt:MSVCP120.dll
 0001:00022dfa       ??0_Fac_node@std@@QAE@PAU01@PAV_Facet_base@1@@Z 00423dfa f i msvcprt:locale0_implib.obj
 0001:00022e0e       ??1_Fac_node@std@@QAE@XZ   00423e0e f i msvcprt:locale0_implib.obj
 0001:00022e23       ??1_Fac_tidy_reg_t@std@@QAE@XZ 00423e23 f i msvcprt:locale0_implib.obj
 0001:00022e47       ??_G_Fac_node@std@@QAEPAXI@Z 00423e47 f i msvcprt:locale0_implib.obj
 0001:00022e66       ?_Facet_Register@std@@YAXPAV_Facet_base@1@@Z 00423e66 f   msvcprt:locale0_implib.obj
 0001:00022e8e       ??Bid@locale@std@@QAEIXZ   00423e8e f   msvcprt:MSVCP120.dll
 0001:00022e94       ?_Getgloballocale@locale@std@@CAPAV_Locimp@12@XZ 00423e94 f   msvcprt:MSVCP120.dll
 0001:00022e9a       ?always_noconv@codecvt_base@std@@QBE_NXZ 00423e9a f   msvcprt:MSVCP120.dll
 0001:00022ea0       ?in@?$codecvt@DDH@std@@QBEHAAHPBD1AAPBDPAD3AAPAD@Z 00423ea0 f   msvcprt:MSVCP120.dll
 0001:00022ea6       ?out@?$codecvt@DDH@std@@QBEHAAHPBD1AAPBDPAD3AAPAD@Z 00423ea6 f   msvcprt:MSVCP120.dll
 0001:00022eac       ?unshift@?$codecvt@DDH@std@@QBEHAAHPAD1AAPAD@Z 00423eac f   msvcprt:MSVCP120.dll
 0001:00022eb2       ?_Getcat@?$codecvt@DDH@std@@SAIPAPBVfacet@locale@2@PBV42@@Z 00423eb2 f   msvcprt:MSVCP120.dll
 0001:00022eb8       ??Bios_base@std@@QBE_NXZ   00423eb8 f   msvcprt:MSVCP120.dll
 0001:00022ebe       ?good@ios_base@std@@QBE_NXZ 00423ebe f   msvcprt:MSVCP120.dll
 0001:00022ec4       ?flags@ios_base@std@@QBEHXZ 00423ec4 f   msvcprt:MSVCP120.dll
 0001:00022eca       ?width@ios_base@std@@QBE_JXZ 00423eca f   msvcprt:MSVCP120.dll
 0001:00022ed0       ?width@ios_base@std@@QAE_J_J@Z 00423ed0 f   msvcprt:MSVCP120.dll
 0001:00022ed6       ??0?$basic_streambuf@DU?$char_traits@D@std@@@std@@IAE@XZ 00423ed6 f   msvcprt:MSVCP120.dll
 0001:00022edc       ??1?$basic_streambuf@DU?$char_traits@D@std@@@std@@UAE@XZ 00423edc f   msvcprt:MSVCP120.dll
 0001:00022ee2       ?getloc@?$basic_streambuf@DU?$char_traits@D@std@@@std@@QBE?AVlocale@2@XZ 00423ee2 f   msvcprt:MSVCP120.dll
 0001:00022ee8       ?sbumpc@?$basic_streambuf@DU?$char_traits@D@std@@@std@@QAEHXZ 00423ee8 f   msvcprt:MSVCP120.dll
 0001:00022eee       ?sgetc@?$basic_streambuf@DU?$char_traits@D@std@@@std@@QAEHXZ 00423eee f   msvcprt:MSVCP120.dll
 0001:00022ef4       ?snextc@?$basic_streambuf@DU?$char_traits@D@std@@@std@@QAEHXZ 00423ef4 f   msvcprt:MSVCP120.dll
 0001:00022efa       ?sputc@?$basic_streambuf@DU?$char_traits@D@std@@@std@@QAEHD@Z 00423efa f   msvcprt:MSVCP120.dll
 0001:00022f00       ?sputn@?$basic_streambuf@DU?$char_traits@D@std@@@std@@QAE_JPBD_J@Z 00423f00 f   msvcprt:MSVCP120.dll
 0001:00022f06       ?eback@?$basic_streambuf@DU?$char_traits@D@std@@@std@@IBEPADXZ 00423f06 f   msvcprt:MSVCP120.dll
 0001:00022f0c       ?gptr@?$basic_streambuf@DU?$char_traits@D@std@@@std@@IBEPADXZ 00423f0c f   msvcprt:MSVCP120.dll
 0001:00022f12       ?pptr@?$basic_streambuf@DU?$char_traits@D@std@@@std@@IBEPADXZ 00423f12 f   msvcprt:MSVCP120.dll
 0001:00022f18       ?egptr@?$basic_streambuf@DU?$char_traits@D@std@@@std@@IBEPADXZ 00423f18 f   msvcprt:MSVCP120.dll
 0001:00022f1e       ?setg@?$basic_streambuf@DU?$char_traits@D@std@@@std@@IAEXPAD00@Z 00423f1e f   msvcprt:MSVCP120.dll
 0001:00022f24       ?epptr@?$basic_streambuf@DU?$char_traits@D@std@@@std@@IBEPADXZ 00423f24 f   msvcprt:MSVCP120.dll
 0001:00022f2a       ?_Gndec@?$basic_streambuf@DU?$char_traits@D@std@@@std@@IAEPADXZ 00423f2a f   msvcprt:MSVCP120.dll
 0001:00022f30       ?_Gninc@?$basic_streambuf@DU?$char_traits@D@std@@@std@@IAEPADXZ 00423f30 f   msvcprt:MSVCP120.dll
 0001:00022f36       ?_Pninc@?$basic_streambuf@DU?$char_traits@D@std@@@std@@IAEPADXZ 00423f36 f   msvcprt:MSVCP120.dll
 0001:00022f3c       ?_Init@?$basic_streambuf@DU?$char_traits@D@std@@@std@@IAEXXZ 00423f3c f   msvcprt:MSVCP120.dll
 0001:00022f42       ?_Init@?$basic_streambuf@DU?$char_traits@D@std@@@std@@IAEXPAPAD0PAH001@Z 00423f42 f   msvcprt:MSVCP120.dll
 0001:00022f48       ??1?$basic_ios@DU?$char_traits@D@std@@@std@@UAE@XZ 00423f48 f   msvcprt:MSVCP120.dll
 0001:00022f4e       ?clear@?$basic_ios@DU?$char_traits@D@std@@@std@@QAEXH_N@Z 00423f4e f   msvcprt:MSVCP120.dll
 0001:00022f54       ?setstate@?$basic_ios@DU?$char_traits@D@std@@@std@@QAEXH_N@Z 00423f54 f   msvcprt:MSVCP120.dll
 0001:00022f5a       ?tie@?$basic_ios@DU?$char_traits@D@std@@@std@@QBEPAV?$basic_ostream@DU?$char_traits@D@std@@@2@XZ 00423f5a f   msvcprt:MSVCP120.dll
 0001:00022f60       ?rdbuf@?$basic_ios@DU?$char_traits@D@std@@@std@@QBEPAV?$basic_streambuf@DU?$char_traits@D@std@@@2@XZ 00423f60 f   msvcprt:MSVCP120.dll
 0001:00022f66       ?fill@?$basic_ios@DU?$char_traits@D@std@@@std@@QBEDXZ 00423f66 f   msvcprt:MSVCP120.dll
 0001:00022f6c       ?widen@?$basic_ios@DU?$char_traits@D@std@@@std@@QBEDD@Z 00423f6c f   msvcprt:MSVCP120.dll
 0001:00022f72       ??0?$basic_ios@DU?$char_traits@D@std@@@std@@IAE@XZ 00423f72 f   msvcprt:MSVCP120.dll
 0001:00022f78       ??0?$basic_ostream@DU?$char_traits@D@std@@@std@@QAE@PAV?$basic_streambuf@DU?$char_traits@D@std@@@1@_N@Z 00423f78 f   msvcprt:MSVCP120.dll
 0001:00022f7e       ??1?$basic_ostream@DU?$char_traits@D@std@@@std@@UAE@XZ 00423f7e f   msvcprt:MSVCP120.dll
 0001:00022f84       ?_Osfx@?$basic_ostream@DU?$char_traits@D@std@@@std@@QAEXXZ 00423f84 f   msvcprt:MSVCP120.dll
 0001:00022f8a       ??6?$basic_ostream@DU?$char_traits@D@std@@@std@@QAEAAV01@P6AAAV01@AAV01@@Z@Z 00423f8a f   msvcprt:MSVCP120.dll
 0001:00022f90       ??6?$basic_ostream@DU?$char_traits@D@std@@@std@@QAEAAV01@H@Z 00423f90 f   msvcprt:MSVCP120.dll
 0001:00022f96       ?put@?$basic_ostream@DU?$char_traits@D@std@@@std@@QAEAAV12@D@Z 00423f96 f   msvcprt:MSVCP120.dll
 0001:00022f9c       ?flush@?$basic_ostream@DU?$char_traits@D@std@@@std@@QAEAAV12@XZ 00423f9c f   msvcprt:MSVCP120.dll
 0001:00022fa2       ??0?$basic_istream@DU?$char_traits@D@std@@@std@@QAE@PAV?$basic_streambuf@DU?$char_traits@D@std@@@1@_N@Z 00423fa2 f   msvcprt:MSVCP120.dll
 0001:00022fa8       ??1?$basic_istream@DU?$char_traits@D@std@@@std@@UAE@XZ 00423fa8 f   msvcprt:MSVCP120.dll
 0001:00022fae       ?_Ipfx@?$basic_istream@DU?$char_traits@D@std@@@std@@QAE_N_N@Z 00423fae f   msvcprt:MSVCP120.dll
 0001:00022fb4       ?_Fiopen@std@@YAPAU_iobuf@@PBDHH@Z 00423fb4 f   msvcprt:MSVCP120.dll
 0001:00022fba       ?showmanyc@?$basic_streambuf@DU?$char_traits@D@std@@@std@@MAE_JXZ 00423fba f   msvcprt:MSVCP120.dll
 0001:00022fc0       ?xsgetn@?$basic_streambuf@DU?$char_traits@D@std@@@std@@MAE_JPAD_J@Z 00423fc0 f   msvcprt:MSVCP120.dll
 0001:00022fc6       ?xsputn@?$basic_streambuf@DU?$char_traits@D@std@@@std@@MAE_JPBD_J@Z 00423fc6 f   msvcprt:MSVCP120.dll
 0001:00022fcc       ?_Orphan_all@_Container_base0@std@@QAEXXZ 00423fcc f   msvcprt:MSVCP120.dll
 0001:000230d6       _NtCurrentTeb              004240d6 f i MSVCRT:crtexe.obj
 0001:00023288       _mainCRTStartup            00424288 f   MSVCRT:crtexe.obj
 0001:00023292       __purecall                 00424292 f   MSVCRT:MSVCR120.dll
 0001:00023298       ??2@YAPAXI@Z               00424298 f   MSVCRT:MSVCR120.dll
 0001:0002329e       ??3@YAXPAX@Z               0042429e f   MSVCRT:MSVCR120.dll
 0001:000232a4       ___atonexitinit            004242a4 f   MSVCRT:atonexit.obj
 0001:000232e0       __onexit                   004242e0 f   MSVCRT:atonexit.obj
 0001:00023389       _atexit                    00424389 f   MSVCRT:atonexit.obj
 0001:0002339e       _malloc                    0042439e f   MSVCRT:MSVCR120.dll
 0001:000233a4       _sprintf                   004243a4 f   MSVCRT:MSVCR120.dll
 0001:000233aa       _memcpy                    004243aa f   MSVCRT:MSVCR120.dll
 0001:000233b0       _strlen                    004243b0 f   MSVCRT:MSVCR120.dll
 0001:000233b6       _memmove                   004243b6 f   MSVCRT:MSVCR120.dll
 0001:000233bc       _rand                      004243bc f   MSVCRT:MSVCR120.dll
 0001:000233c2       __hypot                    004243c2 f   MSVCRT:MSVCR120.dll
 0001:000233c8       ??_V@YAXPAX@Z              004243c8 f   MSVCRT:MSVCR120.dll
 0001:000233ce       @__security_check_cookie@4 004243ce f   MSVCRT:secchk.obj
 0001:000233de       __CxxThrowException@8      004243de f   MSVCRT:MSVCR120.dll
 0001:000233e4       ___CxxFrameHandler3        004243e4 f   MSVCRT:MSVCR120.dll
 0001:000233ea       ___RTDynamicCast           004243ea f   MSVCRT:MSVCR120.dll
 0001:000233f0       ??0type_info@@AAE@ABV0@@Z  004243f0 f   MSVCRT:ti_inst.obj
 0001:000233fb       ??4type_info@@AAEAAV0@ABV0@@Z 004243fb f   MSVCRT:ti_inst.obj
 0001:00023400       ??_Etype_info@@UAEPAXI@Z   00424400 f i MSVCRT:ti_inst.obj
 0001:00023450       ??_L@YGXPAXIHP6EX0@Z1@Z    00424450 f   MSVCRT:ehvecctr.obj
 0001:000234b2       ??_M@YGXPAXIHP6EX0@Z@Z     004244b2 f   MSVCRT:ehvecdtr.obj
 0001:0002353a       ?__ArrayUnwind@@YGXPAXIHP6EX0@Z@Z 0042453a f   MSVCRT:ehvecdtr.obj
 0001:00023598       __errno                    00424598 f   MSVCRT:MSVCR120.dll
 0001:0002359e       _fclose                    0042459e f   MSVCRT:MSVCR120.dll
 0001:000235a4       _fflush                    004245a4 f   MSVCRT:MSVCR120.dll
 0001:000235aa       _fgetc                     004245aa f   MSVCRT:MSVCR120.dll
 0001:000235b0       _fgetpos                   004245b0 f   MSVCRT:MSVCR120.dll
 0001:000235b6       _fputc                     004245b6 f   MSVCRT:MSVCR120.dll
 0001:000235bc       _fsetpos                   004245bc f   MSVCRT:MSVCR120.dll
 0001:000235c2       __fseeki64                 004245c2 f   MSVCRT:MSVCR120.dll
 0001:000235c8       _fwrite                    004245c8 f   MSVCRT:MSVCR120.dll
 0001:000235ce       _printf                    004245ce f   MSVCRT:MSVCR120.dll
 0001:000235d4       _setvbuf                   004245d4 f   MSVCRT:MSVCR120.dll
 0001:000235da       _ungetc                    004245da f   MSVCRT:MSVCR120.dll
 0001:000235e0       __lock_file                004245e0 f   MSVCRT:MSVCR120.dll
 0001:000235e6       __unlock_file              004245e6 f   MSVCRT:MSVCR120.dll
 0001:000235ec       _memchr                    004245ec f   MSVCRT:MSVCR120.dll
 0001:000235f2       _memcmp                    004245f2 f   MSVCRT:MSVCR120.dll
 0001:000235f8       _memcpy_s                  004245f8 f   MSVCRT:MSVCR120.dll
 0001:000235fe       _memset                    004245fe f   MSVCRT:MSVCR120.dll
 0001:00023604       _strtol                    00424604 f   MSVCRT:MSVCR120.dll
 0001:0002360a       _cos                       0042460a f   MSVCRT:MSVCR120.dll
 0001:00023610       _sin                       00424610 f   MSVCRT:MSVCR120.dll
 0001:00023616       ?terminate@@YAXXZ          00424616 f   MSVCRT:MSVCR120.dll
 0001:0002361c       ??0bad_cast@std@@QAE@PBD@Z 0042461c f   MSVCRT:MSVCR120.dll
 0001:00023622       ??0bad_cast@std@@QAE@ABV01@@Z 00424622 f   MSVCRT:MSVCR120.dll
 0001:00023628       ??0exception@std@@QAE@ABV01@@Z 00424628 f   MSVCRT:MSVCR120.dll
 0001:0002362e       ??1bad_cast@std@@UAE@XZ    0042462e f   MSVCRT:MSVCR120.dll
 0001:00023634       _abs                       00424634 f   MSVCRT:MSVCR120.dll
 0001:0002363a       _srand                     0042463a f   MSVCRT:MSVCR120.dll
 0001:00023640       __time64                   00424640 f   MSVCRT:MSVCR120.dll
 0001:00023646       ___iob_func                00424646 f   MSVCRT:MSVCR120.dll
 0001:0002364c       _fprintf                   0042464c f   MSVCRT:MSVCR120.dll
 0001:00023652       _atan                      00424652 f   MSVCRT:MSVCR120.dll
 0001:00023658       _strcpy                    00424658 f   MSVCRT:MSVCR120.dll
 0001:0002365e       _strcmp                    0042465e f   MSVCRT:MSVCR120.dll
 0001:00023664       __wassert                  00424664 f   MSVCRT:MSVCR120.dll
 0001:0002366a       ?__CxxUnhandledExceptionFilter@@YGJPAU_EXCEPTION_POINTERS@@@Z 0042466a f   MSVCRT:unhandld.obj
 0001:000236ab       ___CxxSetUnhandledExceptionFilter 004246ab f   MSVCRT:unhandld.obj
 0001:000236ba       __XcptFilter               004246ba f   MSVCRT:MSVCR120.dll
 0001:000236c0       __amsg_exit                004246c0 f   MSVCRT:MSVCR120.dll
 0001:000236c6       __setargv                  004246c6 f   MSVCRT:dllargv.obj
 0001:000236ca       ___getmainargs             004246ca f   MSVCRT:MSVCR120.dll
 0001:000236d0       ___set_app_type            004246d0 f   MSVCRT:MSVCR120.dll
 0001:000236e0       __FindPESection            004246e0 f   MSVCRT:pesect.obj
 0001:00023730       __IsNonwritableInCurrentImage 00424730 f   MSVCRT:pesect.obj
 0001:000237f0       __ValidateImageBase        004247f0 f   MSVCRT:pesect.obj
 0001:00023822       _exit                      00424822 f   MSVCRT:MSVCR120.dll
 0001:00023828       __exit                     00424828 f   MSVCRT:MSVCR120.dll
 0001:0002382e       __cexit                    0042482e f   MSVCRT:MSVCR120.dll
 0001:00023834       ___security_init_cookie    00424834 f   MSVCRT:gs_support.obj
 0001:000238d0       __matherr                  004248d0 f   MSVCRT:merr.obj
 0001:000238d3       __RTC_Initialize           004248d3 f   MSVCRT:initsect.obj
 0001:000238f3       __RTC_Terminate            004248f3 f   MSVCRT:initsect.obj
 0001:00023914       __configthreadlocale       00424914 f   MSVCRT:MSVCR120.dll
 0001:0002391a       __invoke_watson_if_error   0042491a f i MSVCRT:fp8.obj
 0001:0002393a       __setdefaultprecision      0042493a f   MSVCRT:fp8.obj
 0001:00023962       ___setusermatherr          00424962 f   MSVCRT:MSVCR120.dll
 0001:00023968       __initterm_e               00424968 f   MSVCRT:MSVCR120.dll
 0001:0002396e       __initterm                 0042496e f   MSVCRT:MSVCR120.dll
 0001:00023980       __SEH_prolog4              00424980 f   MSVCRT:sehprolg4.obj
 0001:000239c5       __SEH_epilog4              004249c5 f   MSVCRT:sehprolg4.obj
 0001:000239d9       __except_handler4          004249d9 f   MSVCRT:chandler4gs.obj
 0001:000239fc       __lock                     004249fc f   MSVCRT:MSVCR120.dll
 0001:00023a02       __unlock                   00424a02 f   MSVCRT:MSVCR120.dll
 0001:00023a08       __calloc_crt               00424a08 f   MSVCRT:MSVCR120.dll
 0001:00023a0e       ___dllonexit               00424a0e f   MSVCRT:MSVCR120.dll
 0001:00023a14       ___raise_securityfailure   00424a14 f   MSVCRT:gs_report.obj
 0001:00023a51       ___report_gsfailure        00424a51 f   MSVCRT:gs_report.obj
 0001:00023b4c       ___report_rangecheckfailure 00424b4c f   MSVCRT:gs_report.obj
 0001:00023b58       ___report_securityfailure  00424b58 f   MSVCRT:gs_report.obj
 0001:00023c28       ___report_securityfailureEx 00424c28 f   MSVCRT:gs_report.obj
 0001:00023d3e       ??1type_info@@UAE@XZ       00424d3e f   MSVCRT:MSVCR120.dll
 0001:00023d44       ___crtSetUnhandledExceptionFilter 00424d44 f   MSVCRT:MSVCR120.dll
 0001:00023d4a       __invoke_watson            00424d4a f   MSVCRT:MSVCR120.dll
 0001:00023d50       __controlfp_s              00424d50 f   MSVCRT:MSVCR120.dll
 0001:00023d56       __except_handler4_common   00424d56 f   MSVCRT:MSVCR120.dll
 0001:00023d5c       __crt_debugger_hook        00424d5c f   MSVCRT:MSVCR120.dll
 0001:00023d62       ___crtUnhandledException   00424d62 f   MSVCRT:MSVCR120.dll
 0001:00023d68       ___crtTerminateProcess     00424d68 f   MSVCRT:MSVCR120.dll
 0001:00023d6e       _EncodePointer@4           00424d6e f   kernel32:KERNEL32.dll
 0001:00023d74       _DecodePointer@4           00424d74 f   kernel32:KERNEL32.dll
 0001:00023d7a       _QueryPerformanceCounter@4 00424d7a f   kernel32:KERNEL32.dll
 0001:00023d80       _GetCurrentProcessId@0     00424d80 f   kernel32:KERNEL32.dll
 0001:00023d86       _GetCurrentThreadId@0      00424d86 f   kernel32:KERNEL32.dll
 0001:00023d8c       _GetSystemTimeAsFileTime@4 00424d8c f   kernel32:KERNEL32.dll
 0001:00023d92       _IsDebuggerPresent@0       00424d92 f   kernel32:KERNEL32.dll
 0001:00023d98       _IsProcessorFeaturePresent@4 00424d98 f   kernel32:KERNEL32.dll
 0001:00023d9e       _GetCommandLineW@0         00424d9e f   kernel32:KERNEL32.dll
 0001:00023da4       _SDL_SetMainReady          00424da4 f   SDL2:SDL2.dll
 0001:00023daa       _SDL_free                  00424daa f   SDL2:SDL2.dll
 0001:00023db0       _SDL_malloc                00424db0 f   SDL2:SDL2.dll
 0001:00023db6       _SDL_iconv_string          00424db6 f   SDL2:SDL2.dll
 0001:00023dbc       _SDL_wcslen                00424dbc f   SDL2:SDL2.dll
 0001:00023dc2       _SDL_isspace               00424dc2 f   SDL2:SDL2.dll
 0002:00000000       ___xc_a                    0042a000     MSVCRT:cinitexe.obj
 0002:000005bc       ___xc_z                    0042a5bc     MSVCRT:cinitexe.obj
 0002:000006c0       ___xi_a                    0042a6c0     MSVCRT:cinitexe.obj
 0002:00000ad0       ___xi_z                    0042aad0     MSVCRT:cinitexe.obj
 0002:00000c1c       ??_7error_category@std@@6B@ 0042ac1c     BadPigObject.obj
 0002:00000c40       ??_7_Generic_error_category@std@@6B@ 0042ac40     BadPigObject.obj
 0002:00000c60       ??_C@_07DCLBNMLN@generic?$AA@ 0042ac60     BadPigObject.obj
 0002:00000c6c       ??_C@_0O@BFJCFAAK@unknown?5error?$AA@ 0042ac6c     BadPigObject.obj
 0002:00000c80       ??_7_Iostream_error_category@std@@6B@ 0042ac80     BadPigObject.obj
 0002:00000ca0       ??_C@_08LLGCOLLL@iostream?$AA@ 0042aca0     BadPigObject.obj
 0002:00000cac       ??_C@_0BG@PADBLCHM@iostream?5stream?5error?$AA@ 0042acac     BadPigObject.obj
 0002:00000ccc       ??_7_System_error_category@std@@6B@ 0042accc     BadPigObject.obj
 0002:00000cec       ??_C@_06FHFOAHML@system?$AA@ 0042acec     BadPigObject.obj
 0002:00000cf4       ??_C@_02DPKJAMEF@?$CFd?$AA@ 0042acf4     BadPigObject.obj
 0002:00000cfc       ??_7BadPigObject@@6B@      0042acfc     BadPigObject.obj
 0002:00000d14       ??_C@_0BH@LBLFMCMB@?4?1img?1badpig_left1?4png?$AA@ 0042ad14     BadPigObject.obj
 0002:00000d30       ??_C@_0BI@MADKAFPJ@?4?1img?1badpig_right1?4png?$AA@ 0042ad30     BadPigObject.obj
 0002:00000d4c       ??_C@_0BH@DHCBLAGP@?4?1img?1badpig_left2?4png?$AA@ 0042ad4c     BadPigObject.obj
 0002:00000d68       ??_C@_0BI@EGKOHHFH@?4?1img?1badpig_right2?4png?$AA@ 0042ad68     BadPigObject.obj
 0002:00000d84       ??_C@_0BH@PMHNGDMK@?4?1img?1badpig_left3?4png?$AA@ 0042ad84     BadPigObject.obj
 0002:00000da0       ??_C@_0BI@INPCKEPC@?4?1img?1badpig_right3?4png?$AA@ 0042ada0     BadPigObject.obj
 0002:00000dbc       ??_C@_0M@KGJNINFJ@?$CL?$CFd?5points?$CB?$AA@ 0042adbc     BadPigObject.obj
 0002:00000dcc       ??_C@_0BA@JFNIOLAK@string?5too?5long?$AA@ 0042adcc     BadPigObject.obj
 0002:00000de0       ??_C@_0BI@CFPLBAOH@invalid?5string?5position?$AA@ 0042ade0     BadPigObject.obj
 0002:00000e00       __real@4024000000000000    0042ae00     BadPigObject.obj
 0002:00000e10       __real@403e000000000000    0042ae10     BadPigObject.obj
 0002:00000e20       __real@4086800000000000    0042ae20     BadPigObject.obj
 0002:00000e30       ??_7TileManager@@6B@       0042ae30     BombObject.obj
 0002:00000e44       ??_7BombObject@@6B@        0042ae44     BombObject.obj
 0002:00000e54       ??_C@_0P@IHHAMCJJ@?4?1img?1bomb?4png?$AA@ 0042ae54     BombObject.obj
 0002:00000e6c       ??_7DiamondObject@@6B@     0042ae6c     DiamondObject.obj
 0002:00000e84       ??_C@_0BC@LMGCIAJM@?4?1img?1diamond?4png?$AA@ 0042ae84     DiamondObject.obj
 0002:00000e9c       ??_C@_0N@HIGEGADE@?$CL200?5points?$CB?$AA@ 0042ae9c     DiamondObject.obj
 0002:00000eb0       ??_7DynamicObject@@6B@     0042aeb0     DynamicObject.obj
 0002:00000ec8       ?goals@GoldMinerEngine@@2QBHB 0042aec8     GoldMinerEngine.obj
 0002:00000ef8       ?npos@?$basic_string@DU?$char_traits@D@std@@V?$allocator@D@2@@std@@2IB 0042aef8     GoldMinerEngine.obj
 0002:00000efc       ??_C@_00CNPNBAHC@?$AA@     0042aefc     GoldMinerEngine.obj
 0002:00000f00       ??_C@_0BG@HGEDEDEC@invalid?5stoi?5argument?$AA@ 0042af00     GoldMinerEngine.obj
 0002:00000f1c       ??_C@_0BL@MFFNMGGC@stoi?5argument?5out?5of?5range?$AA@ 0042af1c     GoldMinerEngine.obj
 0002:00000f40       ??_7GoldMinerEngine@@6B@   0042af40     GoldMinerEngine.obj
 0002:00000f98       ??_C@_0L@DPLFHDME@Do?5update?6?$AA@ 0042af98     HookableObject.obj
 0002:00000fac       ??_C@_0BJ@KLOOHDIG@?4?1img?1background?9ppt?4png?$AA@ 0042afac     GoldMinerEngine.obj
 0002:00000fcc       ??_C@_0BA@MJFNGBCA@?4?1img?1start?4jpg?$AA@ 0042afcc     GoldMinerEngine.obj
 0002:00000fe0       ??_C@_0BB@OGKMLBBO@?4?1img?1scores?4jpg?$AA@ 0042afe0     GoldMinerEngine.obj
 0002:00000ff4       ??_C@_0BG@CAMNIPGN@?4?1img?1instruction?4png?$AA@ 0042aff4     GoldMinerEngine.obj
 0002:00001010       ??_C@_0O@JCLPMBGL@?4?1img?1bg1?4png?$AA@ 0042b010     GoldMinerEngine.obj
 0002:00001020       ??_C@_0O@BECLLDMF@?4?1img?1bg2?4png?$AA@ 0042b020     GoldMinerEngine.obj
 0002:00001030       ??_C@_0O@NPHHGAGA@?4?1img?1bg3?4png?$AA@ 0042b030     GoldMinerEngine.obj
 0002:00001040       ??_C@_0O@MCHCFANI@?4?1img?1bg4?4png?$AA@ 0042b040     GoldMinerEngine.obj
 0002:00001050       ??_C@_0BD@IFANNNJP@?4?1img?1score_bk?4jpg?$AA@ 0042b050     GoldMinerEngine.obj
 0002:00001068       ??_C@_0BA@CEDAAOJH@Enter?5Your?5Name?$AA@ 0042b068     GoldMinerEngine.obj
 0002:0000107c       ??_C@_08KNDNNBLP@Level?5?$CFd?$AA@ 0042b07c     GoldMinerEngine.obj
 0002:00001088       ??_C@_08IMINJKEJ@Goal?3?5?$CFd?$AA@ 0042b088     GoldMinerEngine.obj
 0002:00001094       ??_C@_0BF@DIFDMPHK@Press?5space?5to?5start?$AA@ 0042b094     GoldMinerEngine.obj
 0002:000010b0       ??_C@_0BD@JNPIIDJH@You?5Passed?5all?$CB?5?3?$CJ?$AA@ 0042b0b0     GoldMinerEngine.obj
 0002:000010c8       ??_C@_0BF@CHKGBDOF@Score?3?5?$CFd?5?5Level?3?5?$CFd?$AA@ 0042b0c8     GoldMinerEngine.obj
 0002:000010e4       ??_C@_0N@PHLCPELE@Well?5done?5?$CFs?$AA@ 0042b0e4     GoldMinerEngine.obj
 0002:000010f4       ??_C@_0M@KIHIPCDI@Press?5space?$AA@ 0042b0f4     GoldMinerEngine.obj
 0002:00001104       ??_C@_08CDMPFJPE@Game?5End?$AA@ 0042b104     GoldMinerEngine.obj
 0002:00001110       ??_C@_05KFICICHN@?$CB?$CB?$CB?$CB?6?$AA@ 0042b110     GoldMinerEngine.obj
 0002:00001118       ??_C@_05DHJDAOHK@right?$AA@ 0042b118     GoldMinerEngine.obj
 0002:00001120       ??_C@_09HFAJNPOO@Score?3?5?$CFd?$AA@ 0042b120     GoldMinerEngine.obj
 0002:0000112c       ??_C@_08DPAANGMG@Time?3?5?$CFd?$AA@ 0042b12c     GoldMinerEngine.obj
 0002:00001138       ??_C@_09DGDEKFIJ@Level?3?5?$CFd?$AA@ 0042b138     GoldMinerEngine.obj
 0002:00001144       ??_C@_09PAFMKOIH@GAME?5STOP?$AA@ 0042b144     GoldMinerEngine.obj
 0002:00001150       ??_C@_06KFACOCGE@SCORES?$AA@ 0042b150     GoldMinerEngine.obj
 0002:00001158       ??_C@_07EIAOGIOA@Hi?$CB?5?$CFs?6?$AA@ 0042b158     GoldMinerEngine.obj
 0002:00001164       ??_C@_06JFHNPDNO@Reset?6?$AA@ 0042b164     GoldMinerEngine.obj
 0002:0000116c       ??_C@_02HAOIJKIC@?$CFc?$AA@ 0042b16c     GoldMinerEngine.obj
 0002:00001174       ??_7?$basic_filebuf@DU?$char_traits@D@std@@@std@@6B@ 0042b174     GoldMinerEngine.obj
 0002:000011b0       ??_C@_08LLDCIDFP@Detect?$CB?6?$AA@ 0042b1b0     HookableObject.obj
 0002:000011c0       ??_7?$basic_ofstream@DU?$char_traits@D@std@@@std@@6B@ 0042b1c0     GoldMinerEngine.obj
 0002:000011c8       ??_8?$basic_ofstream@DU?$char_traits@D@std@@@std@@7B@ 0042b1c8     GoldMinerEngine.obj
 0002:000011d4       ??_C@_09MFPNNKDL@score?4txt?$AA@ 0042b1d4     GoldMinerEngine.obj
 0002:000011e0       ??_C@_04NHHCOCL@?9?5?5?5?$AA@ 0042b1e0     GoldMinerEngine.obj
 0002:000011e8       ??_C@_0M@GLGGFDMA@Unknown?3?5?5?5?$AA@ 0042b1e8     GoldMinerEngine.obj
 0002:000011f8       ??_C@_04NPLHGFLJ@?3?5?5?5?$AA@ 0042b1f8     GoldMinerEngine.obj
 0002:00001200       ??_C@_01JLIPDDHJ@?3?$AA@   0042b200     GoldMinerEngine.obj
 0002:00001204       ??_C@_01JOAMLHOP@?9?$AA@   0042b204     GoldMinerEngine.obj
 0002:0000120c       ??_7?$basic_ifstream@DU?$char_traits@D@std@@@std@@6B@ 0042b20c     GoldMinerEngine.obj
 0002:00001214       ??_8?$basic_ifstream@DU?$char_traits@D@std@@@std@@7B@ 0042b214     GoldMinerEngine.obj
 0002:00001220       ??_C@_0BG@GELDKDIP@Can?5not?5open?5the?5file?$AA@ 0042b220     GoldMinerEngine.obj
 0002:0000123c       ??_C@_0BL@OOJEGKEL@TOP?5Ten?5?$CIName?5Score?5Level?$CJ?$AA@ 0042b23c     GoldMinerEngine.obj
 0002:0000125c       ??_C@_04DIMAIMCG@?$CFd?3?5?$AA@ 0042b25c     GoldMinerEngine.obj
 0002:00001264       ??_C@_08EPJLHIJG@bad?5cast?$AA@ 0042b264     GoldMinerEngine.obj
 0002:00001270       ??_C@_0BB@MOGOBHAF@list?$DMT?$DO?5too?5long?$AA@ 0042b270     GoldMinerEngine.obj
 0002:00001288       __real@3ff0000000000000    0042b288     GoldMinerEngine.obj
 0002:00001298       __real@3ff8000000000000    0042b298     GoldMinerEngine.obj
 0002:000012a8       __real@400921fb54442d18    0042b2a8     GoldMinerEngine.obj
 0002:000012b8       __real@4059000000000000    0042b2b8     GoldMinerEngine.obj
 0002:000012c8       __real@4066800000000000    0042b2c8     GoldMinerEngine.obj
 0002:000012d8       ??_7GoldObject@@6B@        0042b2d8     GoldObject.obj
 0002:000012f0       ??_C@_0BF@KEPJKPLF@?4?1img?1small_gold?4png?$AA@ 0042b2f0     GoldObject.obj
 0002:0000130c       ??_C@_0BD@JOBNFGMD@?4?1img?1med_gold?4png?$AA@ 0042b30c     GoldObject.obj
 0002:00001324       ??_C@_0BD@CFIFKIHG@?4?1img?1big_gold?4png?$AA@ 0042b324     GoldObject.obj
 0002:0000133c       ??_C@_0M@LIJEGPKA@?$CL50?5points?$CB?$AA@ 0042b33c     GoldObject.obj
 0002:00001350       ??_7HookableObject@@6B@    0042b350     HookableObject.obj
 0002:00001368       __real@4014000000000000    0042b368     HookableObject.obj
 0002:00001378       ??_7HookObject@@6B@        0042b378     HookObject.obj
 0002:00001390       ??_C@_04GOOOJOPP@left?$AA@ 0042b390     HookObject.obj
 0002:00001398       __real@0000000000000000    0042b398     HookObject.obj
 0002:000013a8       __real@3fd3333333333333    0042b3a8     HookObject.obj
 0002:000013b8       __real@3fe0000000000000    0042b3b8     HookObject.obj
 0002:000013c8       __real@3fe999999999999a    0042b3c8     HookObject.obj
 0002:000013d8       __real@3ff3333333333333    0042b3d8     HookObject.obj
 0002:000013e8       __real@4000000000000000    0042b3e8     HookObject.obj
 0002:000013f8       __real@4049000000000000    0042b3f8     HookObject.obj
 0002:00001408       __real@4081300000000000    0042b408     HookObject.obj
 0002:00001418       __real@4087700000000000    0042b418     HookObject.obj
 0002:00001430       __xmm@80000000000000008000000000000000 0042b430     HookObject.obj
 0002:00001448       ??_7InitialStage@@6B@      0042b448     InitialStage.obj
 0002:00001450       ??_C@_0CI@ODDNEOI@My?5Demonstration?5Program?5?3?5Size?5@ 0042b450     mainfunction.obj
 0002:00001480       ??_C@_0BI@NHFDFHOB@Cornerstone?5Regular?4ttf?$AA@ 0042b480     mainfunction.obj
 0002:000014a0       ??_7BaseEngine@@6B@        0042b4a0     BaseEngine.obj
 0002:0000150c       ??_C@_0BI@FBLGJKMC@Unable?5to?5init?5SDL?3?5?$CFs?6?$AA@ 0042b50c     BaseEngine.obj
 0002:00001528       ??_C@_0CM@IHOJMAHM@Draw?5for?5points?5?$CFd?0?5?$CFd?0?5?$CFd?5of?5?$CFd@ 0042b528     BaseEngine.obj
 0002:0000155c       ??_C@_0BG@KPFFDCIH@?7Copy?5point?5?$CFd?5to?5?$CFd?6?$AA@ 0042b55c     BaseEngine.obj
 0002:00001578       ??_C@_0EG@PFCKNAL@Draw?5shortened?5line?5?$CFd?0?$CFd?5to?5?$CFd?0@ 0042b578     BaseEngine.obj
 0002:000015cc       ??_C@_0BD@OLBABOEK@vector?$DMT?$DO?5too?5long?$AA@ 0042b5cc     BaseEngine.obj
 0002:000015e8       __real@3fe0c152382d7365    0042b5e8     BaseEngine.obj
 0002:000015f8       __real@3ff921fb54442d18    0042b5f8     BaseEngine.obj
 0002:00001608       __real@4008000000000000    0042b608     BaseEngine.obj
 0002:00001618       __real@400f6a7a2955385e    0042b618     BaseEngine.obj
 0002:00001628       __real@4010000000000000    0042b628     BaseEngine.obj
 0002:00001638       __real@401921fb54442d18    0042b638     BaseEngine.obj
 0002:00001648       ??_7DisplayableObject@@6B@ 0042b648     DisplayableObject.obj
 0002:00001660       ??_C@_0BI@GMOFELCF@Free?5font?3?5?$CFd?5point?5?$CFs?6?$AA@ 0042b660     FontManager.obj
 0002:0000167c       ??_C@_0BL@IIGPEFFA@Loading?5font?3?5?$CFd?5point?5?$CFs?6?$AA@ 0042b67c     FontManager.obj
 0002:0000169c       ??_C@_0BG@EJGFOME@Font?5loading?5failed?4?6?$AA@ 0042b69c     FontManager.obj
 0002:000016b8       __real@3f50624dd2f1a9fc    0042b6b8     JPGImage.obj
 0002:000016c8       __real@406fe00000000000    0042b6c8     JPGImage.obj
 0002:000016e0       __xmm@41f00000000000000000000000000000 0042b6e0     JPGImage.obj
 0002:000016f8       ??_7PigObject@@6B@         0042b6f8     PigObject.obj
 0002:00001710       ??_C@_0BI@BGEGEKND@?4?1img?1pig_run1_left?4png?$AA@ 0042b710     PigObject.obj
 0002:0000172c       ??_C@_0BJ@BDNGMNDH@?4?1img?1pig_run1_right?4png?$AA@ 0042b72c     PigObject.obj
 0002:0000174c       ??_C@_0BI@IPKECMNC@?4?1img?1pig_run2_left?4png?$AA@ 0042b74c     PigObject.obj
 0002:00001768       ??_C@_0BJ@GEEIBPMH@?4?1img?1pig_run2_right?4png?$AA@ 0042b768     PigObject.obj
 0002:00001788       ??_C@_0BI@EOCKPDBC@?4?1img?1pig_run3_left?4png?$AA@ 0042b788     PigObject.obj
 0002:000017a4       ??_C@_0BJ@PPONFDKI@?4?1img?1pig_run3_right?4png?$AA@ 0042b7a4     PigObject.obj
 0002:000017c4       ??_C@_0BD@OONJNMHO@?4?1img?1pig_hook?4png?$AA@ 0042b7c4     PigObject.obj
 0002:000017e0       ??_C@_1FC@MDOBMIDJ@?$AAc?$AA?3?$AA?2?$AAg?$AAo?$AAl?$AAd?$AAm?$AAi?$AAn?$AAe?$AAr?$AA?2?$AAc?$AAp?$AAp?$AA_?$AAc?$AAw?$AA2?$AA0?$AA1?$AA6?$AA?2?$AAs?$AAr?$AAc?$AA?2?$AAb?$AAa?$AAs?$AAe@ 0042b7e0     SimpleDemo.obj
 0002:00001844       ??_C@_1BA@GEGIDABA@?$AAi?$AAX?$AA?5?$AA?$DO?$AA?$DN?$AA?5?$AA0?$AA?$AA@ 0042b844     SimpleDemo.obj
 0002:00001858       ??_C@_1CI@KAFMFBDA@?$AAi?$AAX?$AA?5?$AA?$DM?$AA?5?$AAm?$AA_?$AAi?$AAS?$AAc?$AAr?$AAe?$AAe?$AAn?$AAW?$AAi?$AAd?$AAt?$AAh?$AA?$AA@ 0042b858     SimpleDemo.obj
 0002:00001888       ??_C@_1BA@PJGHNBGG@?$AAi?$AAY?$AA?5?$AA?$DO?$AA?$DN?$AA?5?$AA0?$AA?$AA@ 0042b888     SimpleDemo.obj
 0002:0000189c       ??_C@_1CK@LKNFCKCC@?$AAi?$AAY?$AA?5?$AA?$DM?$AA?5?$AAm?$AA_?$AAi?$AAS?$AAc?$AAr?$AAe?$AAe?$AAn?$AAH?$AAe?$AAi?$AAg?$AAh?$AAt?$AA?$AA@ 0042b89c     SimpleDemo.obj
 0002:000018d0       ??_C@_1EI@BAHIIBCJ@?$AAi?$AAX?$AA?5?$AA?$DM?$AA?5?$AAG?$AAe?$AAt?$AAI?$AAn?$AAt?$AAs?$AAP?$AAe?$AAr?$AAS?$AAc?$AAr?$AAe?$AAe?$AAn?$AAR?$AAo?$AAw?$AA?$CI?$AA?5?$AAp?$AAT?$AAa?$AAr?$AAg?$AAe@ 0042b8d0     SimpleDemo.obj
 0002:0000192c       ??_7SimpleShape@@6B@       0042b92c     SimpleDemo.obj
 0002:00001944       ??_C@_0BB@HGEFLDGP@Position?5?$CFf?0?5?$CFf?6?$AA@ 0042b944     SimpleDemo.obj
 0002:00001958       ??_C@_0BE@IKIDCBN@Changing?5random?5?$CF6d?$AA@ 0042b958     SimpleDemo.obj
 0002:00001970       ??_C@_0BH@GHJDDINE@Underneath?5the?5objects?$AA@ 0042b970     SimpleDemo.obj
 0002:0000198c       ??_C@_08DMOOLEPO@Time?5?$CF6d?$AA@ 0042b98c     SimpleDemo.obj
 0002:00001998       ??_C@_0BG@CCBEDEBD@On?5top?5of?5the?5objects?$AA@ 0042b998     SimpleDemo.obj
 0002:000019b8       __real@3f747ae147ae147b    0042b9b8     SimpleDemo.obj
 0002:000019c8       __real@4004000000000000    0042b9c8     SimpleDemo.obj
 0002:000019d8       ??_7StageClass@@6B@        0042b9d8     StageClass.obj
 0002:000019e4       ??_7StaticObject@@6B@      0042b9e4     StaticObject.obj
 0002:00001a00       ??_7StoneObject@@6B@       0042ba00     StoneObject.obj
 0002:00001a18       ??_C@_0BA@JNDPGNBH@?4?1img?1stone?4png?$AA@ 0042ba18     StoneObject.obj
 0002:00001a2c       ??_C@_0M@IENBMCC@?$CL10?5points?$CB?$AA@ 0042ba2c     StoneObject.obj
 0002:00001a40       ??_7BouncingBall@@6B@      0042ba40     BouncingBall.obj
 0002:00001a5c       ??_7BouncingBall1@@6B@     0042ba5c     BouncingBall.obj
 0002:00001a78       ??_7BouncingBall2@@6B@     0042ba78     BouncingBall.obj
 0002:00001a90       __real@3f847ae147ae147b    0042ba90     BouncingBall.obj
 0002:00001a9c       ??_C@_08OOIKCPDP@demo?4png?$AA@ 0042ba9c     BouncingBallMain.obj
 0002:00001aa8       ??_C@_01FHEEJDEE@A?$AA@    0042baa8     BouncingBallMain.obj
 0002:00001aac       ??_C@_01HMGJMAIH@B?$AA@    0042baac     BouncingBallMain.obj
 0002:00001ab0       ??_C@_01GFHCPBMG@C?$AA@    0042bab0     BouncingBallMain.obj
 0002:00001ab4       ??_C@_0N@HPPCHOIG@Example?5text?$AA@ 0042bab4     BouncingBallMain.obj
 0002:00001ac8       __real@3ff199999999999a    0042bac8     BouncingBallMain.obj
 0002:00001ad8       __real@4062c00000000000    0042bad8     BouncingBallMain.obj
 0002:00001ae8       __real@4069000000000000    0042bae8     BouncingBallMain.obj
 0002:00001af8       __real@406f400000000000    0042baf8     BouncingBallMain.obj
 0002:00001b08       __real@4071300000000000    0042bb08     BouncingBallMain.obj
 0002:00001b18       __real@4072c00000000000    0042bb18     BouncingBallMain.obj
 0002:00001b28       __real@4074500000000000    0042bb28     BouncingBallMain.obj
 0002:00001b38       __real@4075e00000000000    0042bb38     BouncingBallMain.obj
 0002:00001b48       __real@4079000000000000    0042bb48     BouncingBallMain.obj
 0002:00001b58       __real@4079a00000000000    0042bb58     BouncingBallMain.obj
 0002:00001b68       __real@407c200000000000    0042bb68     BouncingBallMain.obj
 0002:00001b78       __real@407f400000000000    0042bb78     BouncingBallMain.obj
 0002:00001b88       __real@4082c00000000000    0042bb88     BouncingBallMain.obj
 0002:00001b98       __real@4084500000000000    0042bb98     BouncingBallMain.obj
 0002:00001ba8       ??_7Demo1Main@@6B@         0042bba8     Demo1Main.obj
 0002:00001c18       ??_7Demo2Main@@6B@         0042bc18     Demo2Main.obj
 0002:00001c88       ??_7Demo2Object@@6B@       0042bc88     Demo2Object.obj
 0002:00001ca4       ??_7Demo2TileManager@@6B@  0042bca4     Demo2TileManager.obj
 0002:00001cbc       ??_7Demo3Main@@6B@         0042bcbc     Demo3Main.obj
 0002:00001d28       ??_C@_0BA@IKMJDFDJ@bbbbbbbbbbbbbbb?$AA@ 0042bd28     Demo3Main.obj
 0002:00001d3c       ??_C@_0BA@KIOJIFNA@baeaeadadaeaeab?$AA@ 0042bd3c     Demo3Main.obj
 0002:00001d50       ??_C@_0BA@EEDPGBGG@babcbcbcbcbibeb?$AA@ 0042bd50     Demo3Main.obj
 0002:00001d64       ??_C@_0BA@KPFPCIBG@badadgdadhdadhb?$AA@ 0042bd64     Demo3Main.obj
 0002:00001d78       ??_C@_0BA@IIAFPCHL@bgbcbcbcbibcbeb?$AA@ 0042bd78     Demo3Main.obj
 0002:00001d8c       ??_C@_0BA@NNKDJMAJ@badadadadadadab?$AA@ 0042bd8c     Demo3Main.obj
 0002:00001da0       ??_C@_0BA@HHCBCOFJ@bfbcbibcbcbcbeb?$AA@ 0042bda0     Demo3Main.obj
 0002:00001db4       ??_C@_0BA@FLPFLLHP@bahadadhdadadab?$AA@ 0042bdb4     Demo3Main.obj
 0002:00001dc8       ??_C@_0BA@EKBAOEOC@bfbcbcbibcbibeb?$AA@ 0042bdc8     Demo3Main.obj
 0002:00001ddc       ??_C@_03JDANDILB@?$CFd?5?$AA@ 0042bddc     Demo3Main.obj
 0002:00001de0       ??_C@_01EEMJAFIK@?6?$AA@   0042bde0     Demo3Main.obj
 0002:00001de4       ??_C@_0BH@KBIJLFFA@Tile?5placement?5example?$AA@ 0042bde4     Demo3Main.obj
 0002:00001e04       ??_7Demo3Object@@6B@       0042be04     Demo3Object.obj
 0002:00001e20       ??_7Demo3ObjectFinished@@6B@ 0042be20     Demo3ObjectFinished.obj
 0002:00001e3c       ??_7Demo3TileManager@@6B@  0042be3c     Demo3TileManager.obj
 0002:00001e50       ??_7Demo4Main@@6B@         0042be50     Demo4Main.obj
 0002:00001ebc       ??_C@_0CC@DDHGPHEO@Initialised?5and?5waiting?5for?5SPAC@ 0042bebc     Demo4Main.obj
 0002:00001ee4       ??_C@_07JKJCPGE@Running?$AA@ 0042bee4     Demo4Main.obj
 0002:00001ef0       ??_C@_0CA@HICGBBB@Paused?4?5Press?5SPACE?5to?5continue?$AA@ 0042bef0     Demo4Main.obj
 0002:00001f1c       ??_7Demo4Object@@6B@       0042bf1c     Demo4Object.obj
 0002:00001f38       ??_7Demo4TileManager@@6B@  0042bf38     Demo4TileManager.obj
 0002:00001f47       ?value@?$integral_constant@_N$0A@@std@@2_NB 0042bf47     msvcprt:newaop_s.obj
 0002:00001f48       ?value@?$integral_constant@_N$00@std@@2_NB 0042bf48     msvcprt:newaop_s.obj
 0002:00001f50       ??_7type_info@@6B@         0042bf50     MSVCRT:ti_inst.obj
 0002:00001f54       ?ProcessDetach@NativeDll@<CrtImplementationDetails>@@0IB 0042bf54     MSVCRT:unhandld.obj
 0002:00001f58       ?ProcessAttach@NativeDll@<CrtImplementationDetails>@@0IB 0042bf58     MSVCRT:unhandld.obj
 0002:00001f5c       ?ThreadAttach@NativeDll@<CrtImplementationDetails>@@0IB 0042bf5c     MSVCRT:unhandld.obj
 0002:00001f60       ?ThreadDetach@NativeDll@<CrtImplementationDetails>@@0IB 0042bf60     MSVCRT:unhandld.obj
 0002:00001f64       ?ProcessVerifier@NativeDll@<CrtImplementationDetails>@@0IB 0042bf64     MSVCRT:unhandld.obj
 0002:00001f70       ??_C@_05EGJIMALK@UTF?98?$AA@ 0042bf70     SDL2main:SDL_windows_main.obj
 0002:00001f78       ??_C@_0P@ICDEOIDM@UCS?92?9INTERNAL?$AA@ 0042bf78     SDL2main:SDL_windows_main.obj
 0002:00001f88       ??_C@_0M@HFFOIJBL@Fatal?5Error?$AA@ 0042bf88     SDL2main:SDL_windows_main.obj
 0002:00001f94       ??_C@_0BJ@HFNMHALN@Out?5of?5memory?5?9?5aborting?$AA@ 0042bf94     SDL2main:SDL_windows_main.obj
 0002:00001fb0       ??_C@_07KJFPOMFC@?$CFs?3?5?$CFs?6?$AA@ 0042bfb0     SDL2main:SDL_windows_main.obj
 0002:00001fb8       __load_config_used         0042bfb8     MSVCRT:loadcfg.obj
 0002:00002370       ??_R4error_category@std@@6B@ 0042c370     BadPigObject.obj
 0002:00002388       ??_R3error_category@std@@8 0042c388     BadPigObject.obj
 0002:0000239c       ??_R2error_category@std@@8 0042c39c     BadPigObject.obj
 0002:000023a4       ??_R1A@?0A@EA@error_category@std@@8 0042c3a4     BadPigObject.obj
 0002:000023c8       ??_R4_Generic_error_category@std@@6B@ 0042c3c8     BadPigObject.obj
 0002:000023e0       ??_R3_Generic_error_category@std@@8 0042c3e0     BadPigObject.obj
 0002:000023f4       ??_R2_Generic_error_category@std@@8 0042c3f4     BadPigObject.obj
 0002:00002400       ??_R1A@?0A@EA@_Generic_error_category@std@@8 0042c400     BadPigObject.obj
 0002:00002424       ??_R4_Iostream_error_category@std@@6B@ 0042c424     BadPigObject.obj
 0002:0000243c       ??_R3_Iostream_error_category@std@@8 0042c43c     BadPigObject.obj
 0002:00002450       ??_R2_Iostream_error_category@std@@8 0042c450     BadPigObject.obj
 0002:00002460       ??_R1A@?0A@EA@_Iostream_error_category@std@@8 0042c460     BadPigObject.obj
 0002:00002484       ??_R4_System_error_category@std@@6B@ 0042c484     BadPigObject.obj
 0002:0000249c       ??_R3_System_error_category@std@@8 0042c49c     BadPigObject.obj
 0002:000024b0       ??_R2_System_error_category@std@@8 0042c4b0     BadPigObject.obj
 0002:000024c0       ??_R1A@?0A@EA@_System_error_category@std@@8 0042c4c0     BadPigObject.obj
 0002:000024e4       ??_R4BadPigObject@@6B@     0042c4e4     BadPigObject.obj
 0002:000024fc       ??_R3BadPigObject@@8       0042c4fc     BadPigObject.obj
 0002:00002510       ??_R2BadPigObject@@8       0042c510     BadPigObject.obj
 0002:00002524       ??_R1A@?0A@EA@BadPigObject@@8 0042c524     BadPigObject.obj
 0002:00002548       ??_R1A@?0A@EA@DynamicObject@@8 0042c548     BadPigObject.obj
 0002:0000256c       ??_R3DynamicObject@@8      0042c56c     BadPigObject.obj
 0002:00002580       ??_R2DynamicObject@@8      0042c580     BadPigObject.obj
 0002:00002590       ??_R1A@?0A@EA@HookableObject@@8 0042c590     BadPigObject.obj
 0002:000025b4       ??_R3HookableObject@@8     0042c5b4     BadPigObject.obj
 0002:000025c8       ??_R2HookableObject@@8     0042c5c8     BadPigObject.obj
 0002:000025d4       ??_R1A@?0A@EA@DisplayableObject@@8 0042c5d4     BadPigObject.obj
 0002:000025f8       ??_R3DisplayableObject@@8  0042c5f8     BadPigObject.obj
 0002:0000260c       ??_R2DisplayableObject@@8  0042c60c     BadPigObject.obj
 0002:00002614       ??_R4TileManager@@6B@      0042c614     BombObject.obj
 0002:0000262c       ??_R3TileManager@@8        0042c62c     BombObject.obj
 0002:00002640       ??_R2TileManager@@8        0042c640     BombObject.obj
 0002:00002648       ??_R1A@?0A@EA@TileManager@@8 0042c648     BombObject.obj
 0002:0000266c       ??_R4BombObject@@6B@       0042c66c     BombObject.obj
 0002:00002684       ??_R3BombObject@@8         0042c684     BombObject.obj
 0002:00002698       ??_R2BombObject@@8         0042c698     BombObject.obj
 0002:000026a4       ??_R1A@?0A@EA@BombObject@@8 0042c6a4     BombObject.obj
 0002:000026c8       ??_R4DiamondObject@@6B@    0042c6c8     DiamondObject.obj
 0002:000026e0       ??_R3DiamondObject@@8      0042c6e0     DiamondObject.obj
 0002:000026f4       ??_R2DiamondObject@@8      0042c6f4     DiamondObject.obj
 0002:00002708       ??_R1A@?0A@EA@DiamondObject@@8 0042c708     DiamondObject.obj
 0002:0000272c       ??_R1A@?0A@EA@StaticObject@@8 0042c72c     DiamondObject.obj
 0002:00002750       ??_R3StaticObject@@8       0042c750     DiamondObject.obj
 0002:00002764       ??_R2StaticObject@@8       0042c764     DiamondObject.obj
 0002:00002774       ??_R4DynamicObject@@6B@    0042c774     DynamicObject.obj
 0002:0000278c       ??_R4?$basic_filebuf@DU?$char_traits@D@std@@@std@@6B@ 0042c78c     GoldMinerEngine.obj
 0002:000027a4       ??_R3?$basic_filebuf@DU?$char_traits@D@std@@@std@@8 0042c7a4     GoldMinerEngine.obj
 0002:000027b8       ??_R2?$basic_filebuf@DU?$char_traits@D@std@@@std@@8 0042c7b8     GoldMinerEngine.obj
 0002:000027c4       ??_R1A@?0A@EA@?$basic_filebuf@DU?$char_traits@D@std@@@std@@8 0042c7c4     GoldMinerEngine.obj
 0002:000027e8       ??_R1A@?0A@EA@?$basic_streambuf@DU?$char_traits@D@std@@@std@@8 0042c7e8     GoldMinerEngine.obj
 0002:0000280c       ??_R3?$basic_streambuf@DU?$char_traits@D@std@@@std@@8 0042c80c     GoldMinerEngine.obj
 0002:00002820       ??_R2?$basic_streambuf@DU?$char_traits@D@std@@@std@@8 0042c820     GoldMinerEngine.obj
 0002:00002828       ??_R4?$basic_ifstream@DU?$char_traits@D@std@@@std@@6B@ 0042c828     GoldMinerEngine.obj
 0002:00002840       ??_R3?$basic_ifstream@DU?$char_traits@D@std@@@std@@8 0042c840     GoldMinerEngine.obj
 0002:00002854       ??_R2?$basic_ifstream@DU?$char_traits@D@std@@@std@@8 0042c854     GoldMinerEngine.obj
 0002:00002870       ??_R1A@?0A@EA@?$basic_ifstream@DU?$char_traits@D@std@@@std@@8 0042c870     GoldMinerEngine.obj
 0002:00002894       ??_R1A@?0A@EA@?$basic_istream@DU?$char_traits@D@std@@@std@@8 0042c894     GoldMinerEngine.obj
 0002:000028b8       ??_R3?$basic_istream@DU?$char_traits@D@std@@@std@@8 0042c8b8     GoldMinerEngine.obj
 0002:000028cc       ??_R2?$basic_istream@DU?$char_traits@D@std@@@std@@8 0042c8cc     GoldMinerEngine.obj
 0002:000028e0       ??_R1A@A@3FA@?$basic_ios@DU?$char_traits@D@std@@@std@@8 0042c8e0     GoldMinerEngine.obj
 0002:00002904       ??_R3?$basic_ios@DU?$char_traits@D@std@@@std@@8 0042c904     GoldMinerEngine.obj
 0002:00002918       ??_R2?$basic_ios@DU?$char_traits@D@std@@@std@@8 0042c918     GoldMinerEngine.obj
 0002:00002928       ??_R1A@?0A@EA@?$basic_ios@DU?$char_traits@D@std@@@std@@8 0042c928     GoldMinerEngine.obj
 0002:0000294c       ??_R1A@?0A@EA@ios_base@std@@8 0042c94c     GoldMinerEngine.obj
 0002:00002970       ??_R3ios_base@std@@8       0042c970     GoldMinerEngine.obj
 0002:00002984       ??_R2ios_base@std@@8       0042c984     GoldMinerEngine.obj
 0002:00002990       ??_R17?0A@EA@?$_Iosb@H@std@@8 0042c990     GoldMinerEngine.obj
 0002:000029b4       ??_R3?$_Iosb@H@std@@8      0042c9b4     GoldMinerEngine.obj
 0002:000029c8       ??_R2?$_Iosb@H@std@@8      0042c9c8     GoldMinerEngine.obj
 0002:000029d0       ??_R1A@?0A@EA@?$_Iosb@H@std@@8 0042c9d0     GoldMinerEngine.obj
 0002:000029f4       ??_R1A@A@3EA@ios_base@std@@8 0042c9f4     GoldMinerEngine.obj
 0002:00002a18       ??_R17A@3EA@?$_Iosb@H@std@@8 0042ca18     GoldMinerEngine.obj
 0002:00002a3c       ??_R4?$basic_ofstream@DU?$char_traits@D@std@@@std@@6B@ 0042ca3c     GoldMinerEngine.obj
 0002:00002a54       ??_R3?$basic_ofstream@DU?$char_traits@D@std@@@std@@8 0042ca54     GoldMinerEngine.obj
 0002:00002a68       ??_R2?$basic_ofstream@DU?$char_traits@D@std@@@std@@8 0042ca68     GoldMinerEngine.obj
 0002:00002a84       ??_R1A@?0A@EA@?$basic_ofstream@DU?$char_traits@D@std@@@std@@8 0042ca84     GoldMinerEngine.obj
 0002:00002aa8       ??_R1A@?0A@EA@?$basic_ostream@DU?$char_traits@D@std@@@std@@8 0042caa8     GoldMinerEngine.obj
 0002:00002acc       ??_R3?$basic_ostream@DU?$char_traits@D@std@@@std@@8 0042cacc     GoldMinerEngine.obj
 0002:00002ae0       ??_R2?$basic_ostream@DU?$char_traits@D@std@@@std@@8 0042cae0     GoldMinerEngine.obj
 0002:00002af4       ??_R4GoldMinerEngine@@6B@  0042caf4     GoldMinerEngine.obj
 0002:00002b0c       ??_R3GoldMinerEngine@@8    0042cb0c     GoldMinerEngine.obj
 0002:00002b20       ??_R2GoldMinerEngine@@8    0042cb20     GoldMinerEngine.obj
 0002:00002b2c       ??_R1A@?0A@EA@GoldMinerEngine@@8 0042cb2c     GoldMinerEngine.obj
 0002:00002b50       ??_R1A@?0A@EA@BaseEngine@@8 0042cb50     GoldMinerEngine.obj
 0002:00002b74       ??_R3BaseEngine@@8         0042cb74     GoldMinerEngine.obj
 0002:00002b88       ??_R2BaseEngine@@8         0042cb88     GoldMinerEngine.obj
 0002:00002b90       ??_R4GoldObject@@6B@       0042cb90     GoldObject.obj
 0002:00002ba8       ??_R3GoldObject@@8         0042cba8     GoldObject.obj
 0002:00002bbc       ??_R2GoldObject@@8         0042cbbc     GoldObject.obj
 0002:00002bd0       ??_R1A@?0A@EA@GoldObject@@8 0042cbd0     GoldObject.obj
 0002:00002bf4       ??_R4HookableObject@@6B@   0042cbf4     HookableObject.obj
 0002:00002c0c       ??_R4HookObject@@6B@       0042cc0c     HookObject.obj
 0002:00002c24       ??_R3HookObject@@8         0042cc24     HookObject.obj
 0002:00002c38       ??_R2HookObject@@8         0042cc38     HookObject.obj
 0002:00002c44       ??_R1A@?0A@EA@HookObject@@8 0042cc44     HookObject.obj
 0002:00002c68       ??_R4InitialStage@@6B@     0042cc68     InitialStage.obj
 0002:00002c80       ??_R3InitialStage@@8       0042cc80     InitialStage.obj
 0002:00002c94       ??_R2InitialStage@@8       0042cc94     InitialStage.obj
 0002:00002ca0       ??_R1A@?0A@EA@InitialStage@@8 0042cca0     InitialStage.obj
 0002:00002cc4       ??_R1A@?0A@EA@StageClass@@8 0042ccc4     InitialStage.obj
 0002:00002ce8       ??_R3StageClass@@8         0042cce8     InitialStage.obj
 0002:00002cfc       ??_R2StageClass@@8         0042ccfc     InitialStage.obj
 0002:00002d04       ??_R4BaseEngine@@6B@       0042cd04     BaseEngine.obj
 0002:00002d1c       ??_R4DisplayableObject@@6B@ 0042cd1c     DisplayableObject.obj
 0002:00002d34       ??_R4PigObject@@6B@        0042cd34     PigObject.obj
 0002:00002d4c       ??_R3PigObject@@8          0042cd4c     PigObject.obj
 0002:00002d60       ??_R2PigObject@@8          0042cd60     PigObject.obj
 0002:00002d74       ??_R1A@?0A@EA@PigObject@@8 0042cd74     PigObject.obj
 0002:00002d98       ??_R4SimpleShape@@6B@      0042cd98     SimpleDemo.obj
 0002:00002db0       ??_R3SimpleShape@@8        0042cdb0     SimpleDemo.obj
 0002:00002dc4       ??_R2SimpleShape@@8        0042cdc4     SimpleDemo.obj
 0002:00002dd0       ??_R1A@?0A@EA@SimpleShape@@8 0042cdd0     SimpleDemo.obj
 0002:00002df4       ??_R4StageClass@@6B@       0042cdf4     StageClass.obj
 0002:00002e0c       ??_R4StaticObject@@6B@     0042ce0c     StaticObject.obj
 0002:00002e24       ??_R4StoneObject@@6B@      0042ce24     StoneObject.obj
 0002:00002e3c       ??_R3StoneObject@@8        0042ce3c     StoneObject.obj
 0002:00002e50       ??_R2StoneObject@@8        0042ce50     StoneObject.obj
 0002:00002e64       ??_R1A@?0A@EA@StoneObject@@8 0042ce64     StoneObject.obj
 0002:00002e88       ??_R4BouncingBall@@6B@     0042ce88     BouncingBall.obj
 0002:00002ea0       ??_R3BouncingBall@@8       0042cea0     BouncingBall.obj
 0002:00002eb4       ??_R2BouncingBall@@8       0042ceb4     BouncingBall.obj
 0002:00002ec0       ??_R1A@?0A@EA@BouncingBall@@8 0042cec0     BouncingBall.obj
 0002:00002ee4       ??_R4BouncingBall1@@6B@    0042cee4     BouncingBall.obj
 0002:00002efc       ??_R3BouncingBall1@@8      0042cefc     BouncingBall.obj
 0002:00002f10       ??_R2BouncingBall1@@8      0042cf10     BouncingBall.obj
 0002:00002f20       ??_R1A@?0A@EA@BouncingBall1@@8 0042cf20     BouncingBall.obj
 0002:00002f44       ??_R4BouncingBall2@@6B@    0042cf44     BouncingBall.obj
 0002:00002f5c       ??_R3BouncingBall2@@8      0042cf5c     BouncingBall.obj
 0002:00002f70       ??_R2BouncingBall2@@8      0042cf70     BouncingBall.obj
 0002:00002f80       ??_R1A@?0A@EA@BouncingBall2@@8 0042cf80     BouncingBall.obj
 0002:00002fa4       ??_R4Demo1Main@@6B@        0042cfa4     Demo1Main.obj
 0002:00002fbc       ??_R3Demo1Main@@8          0042cfbc     Demo1Main.obj
 0002:00002fd0       ??_R2Demo1Main@@8          0042cfd0     Demo1Main.obj
 0002:00002fdc       ??_R1A@?0A@EA@Demo1Main@@8 0042cfdc     Demo1Main.obj
 0002:00003000       ??_R4Demo2Main@@6B@        0042d000     Demo2Main.obj
 0002:00003018       ??_R3Demo2Main@@8          0042d018     Demo2Main.obj
 0002:0000302c       ??_R2Demo2Main@@8          0042d02c     Demo2Main.obj
 0002:00003038       ??_R1A@?0A@EA@Demo2Main@@8 0042d038     Demo2Main.obj
 0002:0000305c       ??_R4Demo2Object@@6B@      0042d05c     Demo2Object.obj
 0002:00003074       ??_R3Demo2Object@@8        0042d074     Demo2Object.obj
 0002:00003088       ??_R2Demo2Object@@8        0042d088     Demo2Object.obj
 0002:00003094       ??_R1A@?0A@EA@Demo2Object@@8 0042d094     Demo2Object.obj
 0002:000030b8       ??_R4Demo2TileManager@@6B@ 0042d0b8     Demo2TileManager.obj
 0002:000030d0       ??_R3Demo2TileManager@@8   0042d0d0     Demo2TileManager.obj
 0002:000030e4       ??_R2Demo2TileManager@@8   0042d0e4     Demo2TileManager.obj
 0002:000030f0       ??_R1A@?0A@EA@Demo2TileManager@@8 0042d0f0     Demo2TileManager.obj
 0002:00003114       ??_R4Demo3Main@@6B@        0042d114     Demo3Main.obj
 0002:0000312c       ??_R3Demo3Main@@8          0042d12c     Demo3Main.obj
 0002:00003140       ??_R2Demo3Main@@8          0042d140     Demo3Main.obj
 0002:0000314c       ??_R1A@?0A@EA@Demo3Main@@8 0042d14c     Demo3Main.obj
 0002:00003170       ??_R4Demo3Object@@6B@      0042d170     Demo3Object.obj
 0002:00003188       ??_R3Demo3Object@@8        0042d188     Demo3Object.obj
 0002:0000319c       ??_R2Demo3Object@@8        0042d19c     Demo3Object.obj
 0002:000031a8       ??_R1A@?0A@EA@Demo3Object@@8 0042d1a8     Demo3Object.obj
 0002:000031cc       ??_R4Demo3ObjectFinished@@6B@ 0042d1cc     Demo3ObjectFinished.obj
 0002:000031e4       ??_R3Demo3ObjectFinished@@8 0042d1e4     Demo3ObjectFinished.obj
 0002:000031f8       ??_R2Demo3ObjectFinished@@8 0042d1f8     Demo3ObjectFinished.obj
 0002:00003204       ??_R1A@?0A@EA@Demo3ObjectFinished@@8 0042d204     Demo3ObjectFinished.obj
 0002:00003228       ??_R4Demo3TileManager@@6B@ 0042d228     Demo3TileManager.obj
 0002:00003240       ??_R3Demo3TileManager@@8   0042d240     Demo3TileManager.obj
 0002:00003254       ??_R2Demo3TileManager@@8   0042d254     Demo3TileManager.obj
 0002:00003260       ??_R1A@?0A@EA@Demo3TileManager@@8 0042d260     Demo3TileManager.obj
 0002:00003284       ??_R4Demo4Main@@6B@        0042d284     Demo4Main.obj
 0002:0000329c       ??_R3Demo4Main@@8          0042d29c     Demo4Main.obj
 0002:000032b0       ??_R2Demo4Main@@8          0042d2b0     Demo4Main.obj
 0002:000032bc       ??_R1A@?0A@EA@Demo4Main@@8 0042d2bc     Demo4Main.obj
 0002:000032e0       ??_R4Demo4Object@@6B@      0042d2e0     Demo4Object.obj
 0002:000032f8       ??_R3Demo4Object@@8        0042d2f8     Demo4Object.obj
 0002:0000330c       ??_R2Demo4Object@@8        0042d30c     Demo4Object.obj
 0002:00003318       ??_R1A@?0A@EA@Demo4Object@@8 0042d318     Demo4Object.obj
 0002:0000333c       ??_R4Demo4TileManager@@6B@ 0042d33c     Demo4TileManager.obj
 0002:00003354       ??_R3Demo4TileManager@@8   0042d354     Demo4TileManager.obj
 0002:00003368       ??_R2Demo4TileManager@@8   0042d368     Demo4TileManager.obj
 0002:00003374       ??_R1A@?0A@EA@Demo4TileManager@@8 0042d374     Demo4TileManager.obj
 0002:00003398       ??_R4type_info@@6B@        0042d398     MSVCRT:ti_inst.obj
 0002:000033ac       ??_R3type_info@@8          0042d3ac     MSVCRT:ti_inst.obj
 0002:000033bc       ??_R2type_info@@8          0042d3bc     MSVCRT:ti_inst.obj
 0002:000033c4       ??_R1A@?0A@EA@type_info@@8 0042d3c4     MSVCRT:ti_inst.obj
 0002:00003560       ___safe_se_handler_table   0042d560     <linker-defined>
 0002:000037a4       ___rtc_iaa                 0042d7a4     MSVCRT:initsect.obj
 0002:000038a8       ___rtc_izz                 0042d8a8     MSVCRT:initsect.obj
 0002:000039ac       ___rtc_taa                 0042d9ac     MSVCRT:initsect.obj
 0002:00003ab0       ___rtc_tzz                 0042dab0     MSVCRT:initsect.obj
 0002:0000458c       __CT??_R0?AVexception@std@@@8??0exception@std@@QAE@ABV01@@Z12 0042e58c     GoldMinerEngine.obj
 0002:000045ac       __TI2?AVbad_cast@std@@     0042e5ac     GoldMinerEngine.obj
 0002:000045c0       __CTA2?AVbad_cast@std@@    0042e5c0     GoldMinerEngine.obj
 0002:000045d0       __CT??_R0?AVbad_cast@std@@@8??0bad_cast@std@@QAE@ABV01@@Z12 0042e5d0     GoldMinerEngine.obj
 0003:00000000       ?default_name@@3PADA       00430000     GoldMinerEngine.obj
 0003:0000003c       ___security_cookie         0043003c     MSVCRT:gs_cookie.obj
 0003:00000040       ___security_cookie_complement 00430040     MSVCRT:gs_cookie.obj
 0003:00000050       ___defaultmatherr          00430050     MSVCRT:merr.obj
 0003:00000060       ___globallocalestatus      00430060     MSVCRT:xthdloc.obj
 0003:00000064       ___native_dllmain_reason   00430064     MSVCRT:natstart.obj
 0003:00000170       ??_R0?AVDisplayableObject@@@8 00430170     BadPigObject.obj
 0003:00000198       ??_R0?AVHookableObject@@@8 00430198     BadPigObject.obj
 0003:000001bc       ??_R0?AVDiamondObject@@@8  004301bc     BadPigObject.obj
 0003:000001e0       ??_R0?AVerror_category@std@@@8 004301e0     BadPigObject.obj
 0003:00000208       ??_R0?AV_Generic_error_category@std@@@8 00430208     BadPigObject.obj
 0003:0000023c       ??_R0?AV_Iostream_error_category@std@@@8 0043023c     BadPigObject.obj
 0003:00000270       ??_R0?AV_System_error_category@std@@@8 00430270     BadPigObject.obj
 0003:000002a4       ??_R0?AVBadPigObject@@@8   004302a4     BadPigObject.obj
 0003:000002c4       ??_R0?AVDynamicObject@@@8  004302c4     BadPigObject.obj
 0003:000002e8       ??_R0?AVTileManager@@@8    004302e8     BombObject.obj
 0003:00000308       ??_R0?AVBombObject@@@8     00430308     BombObject.obj
 0003:00000328       ??_R0?AVStaticObject@@@8   00430328     DiamondObject.obj
 0003:00000348       ??_R0?AVexception@std@@@8  00430348     GoldMinerEngine.obj
 0003:0000036c       ??_R0?AVbad_cast@std@@@8   0043036c     GoldMinerEngine.obj
 0003:0000038c       ??_R0?AV?$basic_filebuf@DU?$char_traits@D@std@@@std@@@8 0043038c     GoldMinerEngine.obj
 0003:000003d4       ??_R0?AV?$basic_streambuf@DU?$char_traits@D@std@@@std@@@8 004303d4     GoldMinerEngine.obj
 0003:0000041c       ??_R0?AV?$basic_ifstream@DU?$char_traits@D@std@@@std@@@8 0043041c     GoldMinerEngine.obj
 0003:00000464       ??_R0?AV?$basic_istream@DU?$char_traits@D@std@@@std@@@8 00430464     GoldMinerEngine.obj
 0003:000004ac       ??_R0?AV?$basic_ios@DU?$char_traits@D@std@@@std@@@8 004304ac     GoldMinerEngine.obj
 0003:000004ec       ??_R0?AVios_base@std@@@8   004304ec     GoldMinerEngine.obj
 0003:0000050c       ??_R0?AV?$_Iosb@H@std@@@8  0043050c     GoldMinerEngine.obj
 0003:00000530       ??_R0?AV?$basic_ofstream@DU?$char_traits@D@std@@@std@@@8 00430530     GoldMinerEngine.obj
 0003:00000578       ??_R0?AV?$basic_ostream@DU?$char_traits@D@std@@@std@@@8 00430578     GoldMinerEngine.obj
 0003:000005c0       ??_R0?AVGoldMinerEngine@@@8 004305c0     GoldMinerEngine.obj
 0003:000005e4       ??_R0?AVBaseEngine@@@8     004305e4     GoldMinerEngine.obj
 0003:00000604       ??_R0?AVGoldObject@@@8     00430604     GoldObject.obj
 0003:00000624       ??_R0?AVHookObject@@@8     00430624     HookableObject.obj
 0003:00000644       ??_R0?AVInitialStage@@@8   00430644     InitialStage.obj
 0003:00000664       ??_R0?AVStageClass@@@8     00430664     InitialStage.obj
 0003:00000684       ??_R0?AVPigObject@@@8      00430684     PigObject.obj
 0003:000006a0       ??_R0?AVSimpleShape@@@8    004306a0     SimpleDemo.obj
 0003:000006c0       ??_R0?AVStoneObject@@@8    004306c0     StoneObject.obj
 0003:000006e0       ??_R0?AVBouncingBall@@@8   004306e0     BouncingBall.obj
 0003:00000700       ??_R0?AVBouncingBall1@@@8  00430700     BouncingBall.obj
 0003:00000724       ??_R0?AVBouncingBall2@@@8  00430724     BouncingBall.obj
 0003:00000748       ??_R0?AVDemo1Main@@@8      00430748     Demo1Main.obj
 0003:00000764       ??_R0?AVDemo2Main@@@8      00430764     Demo2Main.obj
 0003:00000780       ??_R0?AVDemo2Object@@@8    00430780     Demo2Object.obj
 0003:000007a0       ??_R0?AVDemo2TileManager@@@8 004307a0     Demo2TileManager.obj
 0003:000007c8       ??_R0?AVDemo3Main@@@8      004307c8     Demo3Main.obj
 0003:000007e4       ??_R0?AVDemo3Object@@@8    004307e4     Demo3Object.obj
 0003:00000804       ??_R0?AVDemo3ObjectFinished@@@8 00430804     Demo3ObjectFinished.obj
 0003:0000082c       ??_R0?AVDemo3TileManager@@@8 0043082c     Demo3TileManager.obj
 0003:00000854       ??_R0?AVDemo4Main@@@8      00430854     Demo4Main.obj
 0003:00000870       ??_R0?AVDemo4Object@@@8    00430870     Demo4Object.obj
 0003:00000890       ??_R0?AVDemo4TileManager@@@8 00430890     Demo4TileManager.obj
 0003:000008b8       ??_R0?AVtype_info@@@8      004308b8     MSVCRT:ti_inst.obj
 0003:000009fc       ?_Generic_object@?$_Error_objects@H@std@@2V_Generic_error_category@2@A 004309fc     BadPigObject.obj
 0003:00000a00       ?_Iostream_object@?$_Error_objects@H@std@@2V_Iostream_error_category@2@A 00430a00     BadPigObject.obj
 0003:00000a04       ?_System_object@?$_Error_objects@H@std@@2V_System_error_category@2@A 00430a04     BadPigObject.obj
 0003:00000a08       ?id@?$num_put@DV?$back_insert_iterator@V?$basic_string@DU?$char_traits@D@std@@V?$allocator@D@2@@std@@@std@@@std@@2V0locale@2@A 00430a08     BadPigObject.obj
 0003:00000a0c       ?id@?$num_put@_WV?$back_insert_iterator@V?$basic_string@_WU?$char_traits@_W@std@@V?$allocator@_W@2@@std@@@std@@@std@@2V0locale@2@A 00430a0c     BadPigObject.obj
 0003:00000a18       ?_Stinit@?1??_Init@?$basic_filebuf@DU?$char_traits@D@std@@@std@@IAEXPAU_iobuf@@W4_Initfl@23@@Z@4HA 00430a18     GoldMinerEngine.obj
 0003:00000a1c       ?_Psave@?$_Facetptr@V?$codecvt@DDH@std@@@std@@2PBVfacet@locale@2@B 00430a1c     GoldMinerEngine.obj
 0003:00000a30       ?g_iGlobalRotation@ImageData@@1HA 00430a30     JPGImage.obj
 0003:00000a34       ?g_iGlobalCropLeft@ImageData@@1HA 00430a34     JPGImage.obj
 0003:00000a38       ?g_iGlobalCropRight@ImageData@@1HA 00430a38     JPGImage.obj
 0003:00000a3c       ?g_iGlobalCropTop@ImageData@@1HA 00430a3c     JPGImage.obj
 0003:00000a40       ?g_iGlobalCropBottom@ImageData@@1HA 00430a40     JPGImage.obj
 0003:00000a98       __commode                  00430a98     MSVCRT:xncommod.obj
 0003:00000a9c       __dowildcard               00430a9c     MSVCRT:wildcard.obj
 0003:00000aa0       __newmode                  00430aa0     MSVCRT:_newmode.obj
 0003:00000aa4       __fmode                    00430aa4     MSVCRT:xtxtmode.obj
 0003:00000dc8       ___native_startup_lock     00430dc8     <common>
 0003:00000dd8       ___native_startup_state    00430dd8     <common>
 0003:00000ddc       ___onexitend               00430ddc     <common>
 0003:00000dec       ___onexitbegin             00430dec     <common>
 0003:00000df0       ___dyn_tls_init_callback   00430df0     <common>
 0004:00000000       __imp__IsDebuggerPresent@0 00431000     kernel32:KERNEL32.dll
 0004:00000004       __imp__GetSystemTimeAsFileTime@4 00431004     kernel32:KERNEL32.dll
 0004:00000008       __imp__GetCurrentThreadId@0 00431008     kernel32:KERNEL32.dll
 0004:0000000c       __imp__GetCurrentProcessId@0 0043100c     kernel32:KERNEL32.dll
 0004:00000010       __imp__QueryPerformanceCounter@4 00431010     kernel32:KERNEL32.dll
 0004:00000014       __imp__DecodePointer@4     00431014     kernel32:KERNEL32.dll
 0004:00000018       __imp__EncodePointer@4     00431018     kernel32:KERNEL32.dll
 0004:0000001c       __imp__GetCommandLineW@0   0043101c     kernel32:KERNEL32.dll
 0004:00000020       __imp__IsProcessorFeaturePresent@4 00431020     kernel32:KERNEL32.dll
 0004:00000024       \177KERNEL32_NULL_THUNK_DATA 00431024     kernel32:KERNEL32.dll
 0004:00000054       __imp_?_BADOFF@std@@3_JB   00431054     msvcprt:MSVCP120.dll
 0004:00000058       __imp_?xsputn@?$basic_streambuf@DU?$char_traits@D@std@@@std@@MAE_JPBD_J@Z 00431058     msvcprt:MSVCP120.dll
 0004:0000005c       __imp_?xsgetn@?$basic_streambuf@DU?$char_traits@D@std@@@std@@MAE_JPAD_J@Z 0043105c     msvcprt:MSVCP120.dll
 0004:00000060       __imp_?showmanyc@?$basic_streambuf@DU?$char_traits@D@std@@@std@@MAE_JXZ 00431060     msvcprt:MSVCP120.dll
 0004:00000064       __imp_?_Fiopen@std@@YAPAU_iobuf@@PBDHH@Z 00431064     msvcprt:MSVCP120.dll
 0004:00000068       __imp_?id@?$codecvt@DDH@std@@2V0locale@2@A 00431068     msvcprt:MSVCP120.dll
 0004:0000006c       __imp_??1?$basic_istream@DU?$char_traits@D@std@@@std@@UAE@XZ 0043106c     msvcprt:MSVCP120.dll
 0004:00000070       __imp_??0?$basic_istream@DU?$char_traits@D@std@@@std@@QAE@PAV?$basic_streambuf@DU?$char_traits@D@std@@@1@_N@Z 00431070     msvcprt:MSVCP120.dll
 0004:00000074       __imp_?flush@?$basic_ostream@DU?$char_traits@D@std@@@std@@QAEAAV12@XZ 00431074     msvcprt:MSVCP120.dll
 0004:00000078       __imp_?put@?$basic_ostream@DU?$char_traits@D@std@@@std@@QAEAAV12@D@Z 00431078     msvcprt:MSVCP120.dll
 0004:0000007c       __imp_??6?$basic_ostream@DU?$char_traits@D@std@@@std@@QAEAAV01@H@Z 0043107c     msvcprt:MSVCP120.dll
 0004:00000080       __imp_??6?$basic_ostream@DU?$char_traits@D@std@@@std@@QAEAAV01@P6AAAV01@AAV01@@Z@Z 00431080     msvcprt:MSVCP120.dll
 0004:00000084       __imp_?_Osfx@?$basic_ostream@DU?$char_traits@D@std@@@std@@QAEXXZ 00431084     msvcprt:MSVCP120.dll
 0004:00000088       __imp_??1?$basic_ostream@DU?$char_traits@D@std@@@std@@UAE@XZ 00431088     msvcprt:MSVCP120.dll
 0004:0000008c       __imp_??0?$basic_ostream@DU?$char_traits@D@std@@@std@@QAE@PAV?$basic_streambuf@DU?$char_traits@D@std@@@1@_N@Z 0043108c     msvcprt:MSVCP120.dll
 0004:00000090       __imp_??0?$basic_ios@DU?$char_traits@D@std@@@std@@IAE@XZ 00431090     msvcprt:MSVCP120.dll
 0004:00000094       __imp_?widen@?$basic_ios@DU?$char_traits@D@std@@@std@@QBEDD@Z 00431094     msvcprt:MSVCP120.dll
 0004:00000098       __imp_?_Orphan_all@_Container_base0@std@@QAEXXZ 00431098     msvcprt:MSVCP120.dll
 0004:0000009c       __imp_?_Ipfx@?$basic_istream@DU?$char_traits@D@std@@@std@@QAE_N_N@Z 0043109c     msvcprt:MSVCP120.dll
 0004:000000a0       __imp_?_Xbad_alloc@std@@YAXXZ 004310a0     msvcprt:MSVCP120.dll
 0004:000000a4       __imp_?_Xlength_error@std@@YAXPBD@Z 004310a4     msvcprt:MSVCP120.dll
 0004:000000a8       __imp_?_Xout_of_range@std@@YAXPBD@Z 004310a8     msvcprt:MSVCP120.dll
 0004:000000ac       __imp_??0id@locale@std@@QAE@I@Z 004310ac     msvcprt:MSVCP120.dll
 0004:000000b0       __imp_?_Syserror_map@std@@YAPBDH@Z 004310b0     msvcprt:MSVCP120.dll
 0004:000000b4       __imp_?_Winerror_map@std@@YAPBDH@Z 004310b4     msvcprt:MSVCP120.dll
 0004:000000b8       __imp_??0_Lockit@std@@QAE@H@Z 004310b8     msvcprt:MSVCP120.dll
 0004:000000bc       __imp_??1_Lockit@std@@QAE@XZ 004310bc     msvcprt:MSVCP120.dll
 0004:000000c0       __imp_?uncaught_exception@std@@YA_NXZ 004310c0     msvcprt:MSVCP120.dll
 0004:000000c4       __imp_?_Swap_all@_Container_base0@std@@QAEXAAU12@@Z 004310c4     msvcprt:MSVCP120.dll
 0004:000000c8       __imp_?_Xinvalid_argument@std@@YAXPBD@Z 004310c8     msvcprt:MSVCP120.dll
 0004:000000cc       __imp_??Bid@locale@std@@QAEIXZ 004310cc     msvcprt:MSVCP120.dll
 0004:000000d0       __imp_?_Getgloballocale@locale@std@@CAPAV_Locimp@12@XZ 004310d0     msvcprt:MSVCP120.dll
 0004:000000d4       __imp_?always_noconv@codecvt_base@std@@QBE_NXZ 004310d4     msvcprt:MSVCP120.dll
 0004:000000d8       __imp_?in@?$codecvt@DDH@std@@QBEHAAHPBD1AAPBDPAD3AAPAD@Z 004310d8     msvcprt:MSVCP120.dll
 0004:000000dc       __imp_?out@?$codecvt@DDH@std@@QBEHAAHPBD1AAPBDPAD3AAPAD@Z 004310dc     msvcprt:MSVCP120.dll
 0004:000000e0       __imp_?unshift@?$codecvt@DDH@std@@QBEHAAHPAD1AAPAD@Z 004310e0     msvcprt:MSVCP120.dll
 0004:000000e4       __imp_?_Getcat@?$codecvt@DDH@std@@SAIPAPBVfacet@locale@2@PBV42@@Z 004310e4     msvcprt:MSVCP120.dll
 0004:000000e8       __imp_??Bios_base@std@@QBE_NXZ 004310e8     msvcprt:MSVCP120.dll
 0004:000000ec       __imp_?good@ios_base@std@@QBE_NXZ 004310ec     msvcprt:MSVCP120.dll
 0004:000000f0       __imp_?flags@ios_base@std@@QBEHXZ 004310f0     msvcprt:MSVCP120.dll
 0004:000000f4       __imp_?width@ios_base@std@@QBE_JXZ 004310f4     msvcprt:MSVCP120.dll
 0004:000000f8       __imp_?width@ios_base@std@@QAE_J_J@Z 004310f8     msvcprt:MSVCP120.dll
 0004:000000fc       __imp_??0?$basic_streambuf@DU?$char_traits@D@std@@@std@@IAE@XZ 004310fc     msvcprt:MSVCP120.dll
 0004:00000100       __imp_??1?$basic_streambuf@DU?$char_traits@D@std@@@std@@UAE@XZ 00431100     msvcprt:MSVCP120.dll
 0004:00000104       __imp_?getloc@?$basic_streambuf@DU?$char_traits@D@std@@@std@@QBE?AVlocale@2@XZ 00431104     msvcprt:MSVCP120.dll
 0004:00000108       __imp_?sbumpc@?$basic_streambuf@DU?$char_traits@D@std@@@std@@QAEHXZ 00431108     msvcprt:MSVCP120.dll
 0004:0000010c       __imp_?sgetc@?$basic_streambuf@DU?$char_traits@D@std@@@std@@QAEHXZ 0043110c     msvcprt:MSVCP120.dll
 0004:00000110       __imp_?snextc@?$basic_streambuf@DU?$char_traits@D@std@@@std@@QAEHXZ 00431110     msvcprt:MSVCP120.dll
 0004:00000114       __imp_?sputc@?$basic_streambuf@DU?$char_traits@D@std@@@std@@QAEHD@Z 00431114     msvcprt:MSVCP120.dll
 0004:00000118       __imp_?sputn@?$basic_streambuf@DU?$char_traits@D@std@@@std@@QAE_JPBD_J@Z 00431118     msvcprt:MSVCP120.dll
 0004:0000011c       __imp_?eback@?$basic_streambuf@DU?$char_traits@D@std@@@std@@IBEPADXZ 0043111c     msvcprt:MSVCP120.dll
 0004:00000120       __imp_?gptr@?$basic_streambuf@DU?$char_traits@D@std@@@std@@IBEPADXZ 00431120     msvcprt:MSVCP120.dll
 0004:00000124       __imp_?pptr@?$basic_streambuf@DU?$char_traits@D@std@@@std@@IBEPADXZ 00431124     msvcprt:MSVCP120.dll
 0004:00000128       __imp_?egptr@?$basic_streambuf@DU?$char_traits@D@std@@@std@@IBEPADXZ 00431128     msvcprt:MSVCP120.dll
 0004:0000012c       __imp_?setg@?$basic_streambuf@DU?$char_traits@D@std@@@std@@IAEXPAD00@Z 0043112c     msvcprt:MSVCP120.dll
 0004:00000130       __imp_?epptr@?$basic_streambuf@DU?$char_traits@D@std@@@std@@IBEPADXZ 00431130     msvcprt:MSVCP120.dll
 0004:00000134       __imp_?_Gndec@?$basic_streambuf@DU?$char_traits@D@std@@@std@@IAEPADXZ 00431134     msvcprt:MSVCP120.dll
 0004:00000138       __imp_?_Gninc@?$basic_streambuf@DU?$char_traits@D@std@@@std@@IAEPADXZ 00431138     msvcprt:MSVCP120.dll
 0004:0000013c       __imp_?_Pninc@?$basic_streambuf@DU?$char_traits@D@std@@@std@@IAEPADXZ 0043113c     msvcprt:MSVCP120.dll
 0004:00000140       __imp_?_Init@?$basic_streambuf@DU?$char_traits@D@std@@@std@@IAEXXZ 00431140     msvcprt:MSVCP120.dll
 0004:00000144       __imp_?_Init@?$basic_streambuf@DU?$char_traits@D@std@@@std@@IAEXPAPAD0PAH001@Z 00431144     msvcprt:MSVCP120.dll
 0004:00000148       __imp_??1?$basic_ios@DU?$char_traits@D@std@@@std@@UAE@XZ 00431148     msvcprt:MSVCP120.dll
 0004:0000014c       __imp_?clear@?$basic_ios@DU?$char_traits@D@std@@@std@@QAEXH_N@Z 0043114c     msvcprt:MSVCP120.dll
 0004:00000150       __imp_?setstate@?$basic_ios@DU?$char_traits@D@std@@@std@@QAEXH_N@Z 00431150     msvcprt:MSVCP120.dll
 0004:00000154       __imp_?tie@?$basic_ios@DU?$char_traits@D@std@@@std@@QBEPAV?$basic_ostream@DU?$char_traits@D@std@@@2@XZ 00431154     msvcprt:MSVCP120.dll
 0004:00000158       __imp_?rdbuf@?$basic_ios@DU?$char_traits@D@std@@@std@@QBEPAV?$basic_streambuf@DU?$char_traits@D@std@@@2@XZ 00431158     msvcprt:MSVCP120.dll
 0004:0000015c       __imp_?fill@?$basic_ios@DU?$char_traits@D@std@@@std@@QBEDXZ 0043115c     msvcprt:MSVCP120.dll
 0004:00000160       __imp_?cout@std@@3V?$basic_ostream@DU?$char_traits@D@std@@@1@A 00431160     msvcprt:MSVCP120.dll
 0004:00000164       \177MSVCP120_NULL_THUNK_DATA 00431164     msvcprt:MSVCP120.dll
 0004:000001c4       __imp____crtTerminateProcess 004311c4     MSVCRT:MSVCR120.dll
 0004:000001c8       __imp____crtUnhandledException 004311c8     MSVCRT:MSVCR120.dll
 0004:000001cc       __imp___crt_debugger_hook  004311cc     MSVCRT:MSVCR120.dll
 0004:000001d0       __imp___except_handler4_common 004311d0     MSVCRT:MSVCR120.dll
 0004:000001d4       __imp___controlfp_s        004311d4     MSVCRT:MSVCR120.dll
 0004:000001d8       __imp___invoke_watson      004311d8     MSVCRT:MSVCR120.dll
 0004:000001dc       __imp____crtSetUnhandledExceptionFilter 004311dc     MSVCRT:MSVCR120.dll
 0004:000001e0       __imp_??1type_info@@UAE@XZ 004311e0     MSVCRT:MSVCR120.dll
 0004:000001e4       __imp___onexit             004311e4     MSVCRT:MSVCR120.dll
 0004:000001e8       __imp____dllonexit         004311e8     MSVCRT:MSVCR120.dll
 0004:000001ec       __imp___calloc_crt         004311ec     MSVCRT:MSVCR120.dll
 0004:000001f0       __imp___unlock             004311f0     MSVCRT:MSVCR120.dll
 0004:000001f4       __imp___lock               004311f4     MSVCRT:MSVCR120.dll
 0004:000001f8       __imp___commode            004311f8     MSVCRT:MSVCR120.dll
 0004:000001fc       __imp___fmode              004311fc     MSVCRT:MSVCR120.dll
 0004:00000200       __imp____initenv           00431200     MSVCRT:MSVCR120.dll
 0004:00000204       __imp___initterm           00431204     MSVCRT:MSVCR120.dll
 0004:00000208       __imp___initterm_e         00431208     MSVCRT:MSVCR120.dll
 0004:0000020c       __imp____setusermatherr    0043120c     MSVCRT:MSVCR120.dll
 0004:00000210       __imp___purecall           00431210     MSVCRT:MSVCR120.dll
 0004:00000214       __imp_??2@YAPAXI@Z         00431214     MSVCRT:MSVCR120.dll
 0004:00000218       __imp_??3@YAXPAX@Z         00431218     MSVCRT:MSVCR120.dll
 0004:0000021c       __imp__malloc              0043121c     MSVCRT:MSVCR120.dll
 0004:00000220       __imp__sprintf             00431220     MSVCRT:MSVCR120.dll
 0004:00000224       __imp__memcpy              00431224     MSVCRT:MSVCR120.dll
 0004:00000228       __imp__strlen              00431228     MSVCRT:MSVCR120.dll
 0004:0000022c       __imp__memmove             0043122c     MSVCRT:MSVCR120.dll
 0004:00000230       __imp__rand                00431230     MSVCRT:MSVCR120.dll
 0004:00000234       __imp___hypot              00431234     MSVCRT:MSVCR120.dll
 0004:00000238       __imp_??_V@YAXPAX@Z        00431238     MSVCRT:MSVCR120.dll
 0004:0000023c       __imp___CxxThrowException@8 0043123c     MSVCRT:MSVCR120.dll
 0004:00000240       __imp____CxxFrameHandler3  00431240     MSVCRT:MSVCR120.dll
 0004:00000244       __imp____RTDynamicCast     00431244     MSVCRT:MSVCR120.dll
 0004:00000248       __imp___errno              00431248     MSVCRT:MSVCR120.dll
 0004:0000024c       __imp__fclose              0043124c     MSVCRT:MSVCR120.dll
 0004:00000250       __imp__fflush              00431250     MSVCRT:MSVCR120.dll
 0004:00000254       __imp__fgetc               00431254     MSVCRT:MSVCR120.dll
 0004:00000258       __imp__fgetpos             00431258     MSVCRT:MSVCR120.dll
 0004:0000025c       __imp__fputc               0043125c     MSVCRT:MSVCR120.dll
 0004:00000260       __imp__fsetpos             00431260     MSVCRT:MSVCR120.dll
 0004:00000264       __imp___fseeki64           00431264     MSVCRT:MSVCR120.dll
 0004:00000268       __imp__fwrite              00431268     MSVCRT:MSVCR120.dll
 0004:0000026c       __imp__printf              0043126c     MSVCRT:MSVCR120.dll
 0004:00000270       __imp__setvbuf             00431270     MSVCRT:MSVCR120.dll
 0004:00000274       __imp__ungetc              00431274     MSVCRT:MSVCR120.dll
 0004:00000278       __imp___lock_file          00431278     MSVCRT:MSVCR120.dll
 0004:0000027c       __imp___unlock_file        0043127c     MSVCRT:MSVCR120.dll
 0004:00000280       __imp__memchr              00431280     MSVCRT:MSVCR120.dll
 0004:00000284       __imp__memcmp              00431284     MSVCRT:MSVCR120.dll
 0004:00000288       __imp__memcpy_s            00431288     MSVCRT:MSVCR120.dll
 0004:0000028c       __imp__memset              0043128c     MSVCRT:MSVCR120.dll
 0004:00000290       __imp__strtol              00431290     MSVCRT:MSVCR120.dll
 0004:00000294       __imp__cos                 00431294     MSVCRT:MSVCR120.dll
 0004:00000298       __imp__sin                 00431298     MSVCRT:MSVCR120.dll
 0004:0000029c       __imp_?terminate@@YAXXZ    0043129c     MSVCRT:MSVCR120.dll
 0004:000002a0       __imp_??0bad_cast@std@@QAE@PBD@Z 004312a0     MSVCRT:MSVCR120.dll
 0004:000002a4       __imp_??0bad_cast@std@@QAE@ABV01@@Z 004312a4     MSVCRT:MSVCR120.dll
 0004:000002a8       __imp_??0exception@std@@QAE@ABV01@@Z 004312a8     MSVCRT:MSVCR120.dll
 0004:000002ac       __imp_??1bad_cast@std@@UAE@XZ 004312ac     MSVCRT:MSVCR120.dll
 0004:000002b0       __imp__abs                 004312b0     MSVCRT:MSVCR120.dll
 0004:000002b4       __imp__srand               004312b4     MSVCRT:MSVCR120.dll
 0004:000002b8       __imp___time64             004312b8     MSVCRT:MSVCR120.dll
 0004:000002bc       __imp____iob_func          004312bc     MSVCRT:MSVCR120.dll
 0004:000002c0       __imp__fprintf             004312c0     MSVCRT:MSVCR120.dll
 0004:000002c4       __imp__atan                004312c4     MSVCRT:MSVCR120.dll
 0004:000002c8       __imp__strcpy              004312c8     MSVCRT:MSVCR120.dll
 0004:000002cc       __imp__strcmp              004312cc     MSVCRT:MSVCR120.dll
 0004:000002d0       __imp___wassert            004312d0     MSVCRT:MSVCR120.dll
 0004:000002d4       __imp___XcptFilter         004312d4     MSVCRT:MSVCR120.dll
 0004:000002d8       __imp___amsg_exit          004312d8     MSVCRT:MSVCR120.dll
 0004:000002dc       __imp____getmainargs       004312dc     MSVCRT:MSVCR120.dll
 0004:000002e0       __imp____set_app_type      004312e0     MSVCRT:MSVCR120.dll
 0004:000002e4       __imp__exit                004312e4     MSVCRT:MSVCR120.dll
 0004:000002e8       __imp___exit               004312e8     MSVCRT:MSVCR120.dll
 0004:000002ec       __imp___cexit              004312ec     MSVCRT:MSVCR120.dll
 0004:000002f0       __imp___configthreadlocale 004312f0     MSVCRT:MSVCR120.dll
 0004:000002f4       \177MSVCR120_NULL_THUNK_DATA 004312f4     MSVCRT:MSVCR120.dll
 0004:0000035c       __imp__SDL_UnlockSurface   0043135c     SDL2:SDL2.dll
 0004:00000360       __imp__SDL_FillRect        00431360     SDL2:SDL2.dll
 0004:00000364       __imp__SDL_abs             00431364     SDL2:SDL2.dll
 0004:00000368       __imp__SDL_UpperBlit       00431368     SDL2:SDL2.dll
 0004:0000036c       __imp__SDL_CreateWindow    0043136c     SDL2:SDL2.dll
 0004:00000370       __imp__SDL_PollEvent       00431370     SDL2:SDL2.dll
 0004:00000374       __imp__SDL_CreateRenderer  00431374     SDL2:SDL2.dll
 0004:00000378       __imp__SDL_CreateTexture   00431378     SDL2:SDL2.dll
 0004:0000037c       __imp__SDL_UpdateTexture   0043137c     SDL2:SDL2.dll
 0004:00000380       __imp__SDL_RenderCopy      00431380     SDL2:SDL2.dll
 0004:00000384       __imp__SDL_RenderPresent   00431384     SDL2:SDL2.dll
 0004:00000388       __imp__SDL_GetTicks        00431388     SDL2:SDL2.dll
 0004:0000038c       __imp__SDL_Delay           0043138c     SDL2:SDL2.dll
 0004:00000390       __imp__SDL_Init            00431390     SDL2:SDL2.dll
 0004:00000394       __imp__SDL_Quit            00431394     SDL2:SDL2.dll
 0004:00000398       __imp__SDL_wcslen          00431398     SDL2:SDL2.dll
 0004:0000039c       __imp__SDL_iconv_string    0043139c     SDL2:SDL2.dll
 0004:000003a0       __imp__SDL_malloc          004313a0     SDL2:SDL2.dll
 0004:000003a4       __imp__SDL_free            004313a4     SDL2:SDL2.dll
 0004:000003a8       __imp__SDL_LockSurface     004313a8     SDL2:SDL2.dll
 0004:000003ac       __imp__SDL_FreeSurface     004313ac     SDL2:SDL2.dll
 0004:000003b0       __imp__SDL_CreateRGBSurface 004313b0     SDL2:SDL2.dll
 0004:000003b4       __imp__SDL_GetError        004313b4     SDL2:SDL2.dll
 0004:000003b8       __imp__SDL_sin             004313b8     SDL2:SDL2.dll
 0004:000003bc       __imp__SDL_cos             004313bc     SDL2:SDL2.dll
 0004:000003c0       __imp__SDL_SetMainReady    004313c0     SDL2:SDL2.dll
 0004:000003c4       __imp__SDL_isspace         004313c4     SDL2:SDL2.dll
 0004:000003c8       \177SDL2_NULL_THUNK_DATA   004313c8     SDL2:SDL2.dll
 0004:00000408       __imp__IMG_Load            00431408     SDL2_image:SDL2_image.dll
 0004:0000040c       \177SDL2_image_NULL_THUNK_DATA 0043140c     SDL2_image:SDL2_image.dll
 0004:00000438       __imp__TTF_RenderText_Solid 00431438     SDL2_ttf:SDL2_ttf.dll
 0004:0000043c       __imp__TTF_Init            0043143c     SDL2_ttf:SDL2_ttf.dll
 0004:00000440       __imp__TTF_Quit            00431440     SDL2_ttf:SDL2_ttf.dll
 0004:00000444       __imp__TTF_OpenFont        00431444     SDL2_ttf:SDL2_ttf.dll
 0004:00000448       __imp__TTF_CloseFont       00431448     SDL2_ttf:SDL2_ttf.dll
 0004:0000044c       \177SDL2_ttf_NULL_THUNK_DATA 0043144c     SDL2_ttf:SDL2_ttf.dll
 0004:0000047c       __IMPORT_DESCRIPTOR_SDL2   0043147c     SDL2:SDL2.dll
 0004:00000490       __IMPORT_DESCRIPTOR_SDL2_image 00431490     SDL2_image:SDL2_image.dll
 0004:000004a4       __IMPORT_DESCRIPTOR_SDL2_ttf 004314a4     SDL2_ttf:SDL2_ttf.dll
 0004:000004b8       __IMPORT_DESCRIPTOR_MSVCP120 004314b8     msvcprt:MSVCP120.dll
 0004:000004cc       __IMPORT_DESCRIPTOR_MSVCR120 004314cc     MSVCRT:MSVCR120.dll
 0004:000004e0       __IMPORT_DESCRIPTOR_KERNEL32 004314e0     kernel32:KERNEL32.dll
 0004:000004f4       __NULL_IMPORT_DESCRIPTOR   004314f4     SDL2:SDL2.dll
